Certificate:
    Data:
        Version: 3 (0x2)
        Serial Number: 2 (0x2)
        Signature Algorithm: md5WithRSAEncryption
        Issuer: C=US, ST=Florida, L=Palm Beach Gardens, O=ZeroC, Inc., OU=Ice, CN=ZeroC Test CA (Objective-C)/emailAddress=info@zeroc.com
        Validity
            Not Before: Jul 21 20:19:40 2011 GMT
            Not After : Jul 19 20:19:40 2016 GMT
        Subject: C=US, ST=Florida, O=ZeroC, Inc., OU=Ice/emailAddress=info@zeroc.com, CN=Client
        Subject Public Key Info:
            Public Key Algorithm: rsaEncryption
            RSA Public Key: (1024 bit)
                Modulus (1024 bit):
                    00:ec:95:aa:56:fa:c6:9a:b9:f4:13:74:24:b1:0b:
                    3e:4c:e0:5c:ba:ef:d5:9e:4b:1b:87:0f:c5:61:9a:
                    dc:e4:ce:40:b8:02:51:d1:69:ee:48:0e:df:ef:7c:
                    15:f9:47:ae:61:50:d0:0e:e5:16:e8:4f:e2:71:02:
                    fa:60:a1:87:3b:54:99:13:fb:30:0c:62:bb:37:a5:
                    82:61:4a:9a:a0:3b:70:b4:b5:85:b4:12:db:24:e8:
                    ca:b5:d7:53:d0:0c:71:dd:85:67:39:9e:85:1a:8a:
                    c0:dc:f0:bc:17:40:c2:2a:36:3b:ec:9e:43:f4:12:
                    05:6e:49:98:e7:2c:a6:61:1f
                Exponent: 65537 (0x10001)
        X509v3 extensions:
            X509v3 Basic Constraints: 
                CA:FALSE
            X509v3 Subject Key Identifier: 
                D5:BA:D5:DA:27:5C:60:01:2F:67:0E:12:94:BB:D2:49:8D:B6:14:42
            X509v3 Authority Key Identifier: 
                keyid:C2:69:07:D1:CE:09:CB:E5:A7:CB:5D:9E:D1:FC:9A:C5:4D:76:E7:B0
                DirName:/C=US/ST=Florida/L=Palm Beach Gardens/O=ZeroC, Inc./OU=Ice/CN=ZeroC Test CA (Objective-C)/emailAddress=info@zeroc.com
                serial:D2:76:A3:BC:FD:AF:EA:D9

            X509v3 Subject Alternative Name: 
                DNS:client, IP Address:127.0.0.1
    Signature Algorithm: md5WithRSAEncryption
        2e:8f:93:48:bf:21:de:4d:d9:06:5a:87:29:69:a0:a4:5e:37:
        3c:5c:64:6c:64:b8:a1:63:60:91:e7:c1:55:72:ba:b0:bf:12:
        46:06:9f:5e:51:8c:b6:e2:b1:1b:c1:dd:e0:34:eb:b5:c1:11:
        fd:73:cb:e1:c5:98:10:d1:fe:c9:82:6c:72:39:91:a0:c9:83:
        e9:76:df:ea:dd:7f:ab:99:49:a8:f6:4a:65:b9:fc:2d:01:fa:
        80:3c:74:d7:04:51:40:b3:1f:db:f4:a4:74:7b:9c:75:a9:01:
        af:ab:ed:d9:38:3f:6e:9a:d6:a1:cc:89:79:f8:ba:b7:50:53:
        04:34
-----BEGIN CERTIFICATE-----
MIIDtTCCAx6gAwIBAgIBAjANBgkqhkiG9w0BAQQFADCBpTELMAkGA1UEBhMCVVMx
EDAOBgNVBAgTB0Zsb3JpZGExGzAZBgNVBAcTElBhbG0gQmVhY2ggR2FyZGVuczEU
MBIGA1UEChMLWmVyb0MsIEluYy4xDDAKBgNVBAsTA0ljZTEkMCIGA1UEAxMbWmVy
b0MgVGVzdCBDQSAoT2JqZWN0aXZlLUMpMR0wGwYJKoZIhvcNAQkBFg5pbmZvQHpl
cm9jLmNvbTAeFw0xMTA3MjEyMDE5NDBaFw0xNjA3MTkyMDE5NDBaMHMxCzAJBgNV
BAYTAlVTMRAwDgYDVQQIEwdGbG9yaWRhMRQwEgYDVQQKEwtaZXJvQywgSW5jLjEM
MAoGA1UECxMDSWNlMR0wGwYJKoZIhvcNAQkBFg5pbmZvQHplcm9jLmNvbTEPMA0G
A1UEAxMGQ2xpZW50MIGfMA0GCSqGSIb3DQEBAQUAA4GNADCBiQKBgQDslapW+saa
ufQTdCSxCz5M4Fy679WeSxuHD8VhmtzkzkC4AlHRae5IDt/vfBX5R65hUNAO5Rbo
T+JxAvpgoYc7VJkT+zAMYrs3pYJhSpqgO3C0tYW0Etsk6Mq111PQDHHdhWc5noUa
isDc8LwXQMIqNjvsnkP0EgVuSZjnLKZhHwIDAQABo4IBJDCCASAwCQYDVR0TBAIw
ADAdBgNVHQ4EFgQU1brV2idcYAEvZw4SlLvSSY22FEIwgdoGA1UdIwSB0jCBz4AU
wmkH0c4Jy+Wny12e0fyaxU1257ChgaukgagwgaUxCzAJBgNVBAYTAlVTMRAwDgYD
VQQIEwdGbG9yaWRhMRswGQYDVQQHExJQYWxtIEJlYWNoIEdhcmRlbnMxFDASBgNV
BAoTC1plcm9DLCBJbmMuMQwwCgYDVQQLEwNJY2UxJDAiBgNVBAMTG1plcm9DIFRl
c3QgQ0EgKE9iamVjdGl2ZS1DKTEdMBsGCSqGSIb3DQEJARYOaW5mb0B6ZXJvYy5j
b22CCQDSdqO8/a/q2TAXBgNVHREEEDAOggZjbGllbnSHBH8AAAEwDQYJKoZIhvcN
AQEEBQADgYEALo+TSL8h3k3ZBlqHKWmgpF43PFxkbGS4oWNgkefBVXK6sL8SRgaf
XlGMtuKxG8Hd4DTrtcER/XPL4cWYENH+yYJscjmRoMmD6Xbf6t1/q5lJqPZKZbn8
LQH6gDx01wRRQLMf2/SkdHucdakBr6vt2Tg/bprWocyJefi6t1BTBDQ=
-----END CERTIFICATE-----
