Certificate:
    Data:
        Version: 3 (0x2)
        Serial Number: 2 (0x2)
        Signature Algorithm: md5WithRSAEncryption
        Issuer: C=US, ST=Florida, L=Palm Beach Gardens, O=ZeroC, Inc., OU=Ice, CN=ZeroC Test CA/emailAddress=info@zeroc.com
        Validity
            Not Before: Sep 24 12:30:24 2008 GMT
            Not After : Sep 23 12:30:24 2013 GMT
        Subject: C=US, ST=Florida, O=ZeroC, Inc., OU=Ice/emailAddress=info@zeroc.com, CN=Client
        Subject Public Key Info:
            Public Key Algorithm: rsaEncryption
            RSA Public Key: (1024 bit)
                Modulus (1024 bit):
                    00:ae:f7:0c:3a:8d:92:da:96:6b:e6:a1:bd:cf:f8:
                    45:f3:e4:7d:10:33:20:de:97:ec:bc:e2:14:1c:78:
                    e7:84:be:90:46:23:74:4f:2b:87:99:43:76:97:65:
                    19:15:39:13:4f:b4:18:86:8c:fa:31:82:3b:63:f7:
                    e9:68:1e:d7:82:cf:9a:4e:48:43:00:fd:19:98:ef:
                    f5:4f:7e:be:c8:12:89:95:bb:3d:de:b3:76:84:59:
                    63:d1:27:ba:ea:5a:aa:a2:ea:90:fc:27:44:d4:6f:
                    df:34:06:da:d1:0c:24:72:64:cd:03:be:e9:b7:f0:
                    84:ff:6e:2b:44:b6:48:9d:11
                Exponent: 65537 (0x10001)
        X509v3 extensions:
            X509v3 Basic Constraints: 
                CA:FALSE
            X509v3 Subject Key Identifier: 
                CA:8E:ED:A9:62:4E:2A:01:56:CC:25:A3:E6:5D:9E:9B:1E:F0:7F:9A
            X509v3 Authority Key Identifier: 
                keyid:95:0C:16:E7:79:AF:91:62:68:68:E1:AB:90:01:E9:D9:E3:69:CF:57
                DirName:/C=US/ST=Florida/L=Palm Beach Gardens/O=ZeroC, Inc./OU=Ice/CN=ZeroC Test CA/emailAddress=info@zeroc.com
                serial:DA:EA:6A:1B:FD:74:3A:D9

            X509v3 Subject Alternative Name: 
                DNS:client, IP Address:127.0.0.1
    Signature Algorithm: md5WithRSAEncryption
        0c:96:21:3b:4e:4b:00:7f:7f:fc:3e:db:ec:33:11:7c:b7:6d:
        0f:a6:de:ad:2a:24:7f:da:db:3f:3f:3f:d6:de:3e:2d:c1:4b:
        45:2e:48:09:27:c6:1b:94:ee:b7:63:ea:1f:db:be:9a:28:a4:
        97:a4:7e:4c:1d:0f:65:a8:4f:32:63:14:60:37:4b:31:34:21:
        d6:da:a5:30:2a:f0:b2:b7:21:28:af:b6:ae:54:e6:6a:90:59:
        f8:1e:8c:d9:28:0e:8c:18:c5:cf:35:30:c7:83:0a:50:c7:05:
        3b:df:92:07:e6:0e:5b:4a:fb:08:94:35:4f:f6:ee:6d:a5:67:
        35:60
-----BEGIN CERTIFICATE-----
MIIDmTCCAwKgAwIBAgIBAjANBgkqhkiG9w0BAQQFADCBlzELMAkGA1UEBhMCVVMx
EDAOBgNVBAgTB0Zsb3JpZGExGzAZBgNVBAcTElBhbG0gQmVhY2ggR2FyZGVuczEU
MBIGA1UEChMLWmVyb0MsIEluYy4xDDAKBgNVBAsTA0ljZTEWMBQGA1UEAxMNWmVy
b0MgVGVzdCBDQTEdMBsGCSqGSIb3DQEJARYOaW5mb0B6ZXJvYy5jb20wHhcNMDgw
OTI0MTIzMDI0WhcNMTMwOTIzMTIzMDI0WjBzMQswCQYDVQQGEwJVUzEQMA4GA1UE
CBMHRmxvcmlkYTEUMBIGA1UEChMLWmVyb0MsIEluYy4xDDAKBgNVBAsTA0ljZTEd
MBsGCSqGSIb3DQEJARYOaW5mb0B6ZXJvYy5jb20xDzANBgNVBAMTBkNsaWVudDCB
nzANBgkqhkiG9w0BAQEFAAOBjQAwgYkCgYEArvcMOo2S2pZr5qG9z/hF8+R9EDMg
3pfsvOIUHHjnhL6QRiN0TyuHmUN2l2UZFTkTT7QYhoz6MYI7Y/fpaB7Xgs+aTkhD
AP0ZmO/1T36+yBKJlbs93rN2hFlj0Se66lqqouqQ/CdE1G/fNAba0QwkcmTNA77p
t/CE/24rRLZInRECAwEAAaOCARYwggESMAkGA1UdEwQCMAAwHQYDVR0OBBYEFMqO
7aliTioBVswlo+Zdnpse8H+aMIHMBgNVHSMEgcQwgcGAFJUMFud5r5FiaGjhq5AB
6dnjac9XoYGdpIGaMIGXMQswCQYDVQQGEwJVUzEQMA4GA1UECBMHRmxvcmlkYTEb
MBkGA1UEBxMSUGFsbSBCZWFjaCBHYXJkZW5zMRQwEgYDVQQKEwtaZXJvQywgSW5j
LjEMMAoGA1UECxMDSWNlMRYwFAYDVQQDEw1aZXJvQyBUZXN0IENBMR0wGwYJKoZI
hvcNAQkBFg5pbmZvQHplcm9jLmNvbYIJANrqahv9dDrZMBcGA1UdEQQQMA6CBmNs
aWVudIcEfwAAATANBgkqhkiG9w0BAQQFAAOBgQAMliE7TksAf3/8PtvsMxF8t20P
pt6tKiR/2ts/Pz/W3j4twUtFLkgJJ8YblO63Y+of276aKKSXpH5MHQ9lqE8yYxRg
N0sxNCHW2qUwKvCytyEor7auVOZqkFn4HozZKA6MGMXPNTDHgwpQxwU735IH5g5b
SvsIlDVP9u5tpWc1YA==
-----END CERTIFICATE-----
