Certificate:
    Data:
        Version: 3 (0x2)
        Serial Number: 2 (0x2)
        Signature Algorithm: md5WithRSAEncryption
        Issuer: C=US, ST=Florida, L=Palm Beach Gardens, O=ZeroC, Inc., OU=Ice, CN=ZeroC Test CA (Objective-C)/emailAddress=info@zeroc.com
        Validity
            Not Before: Sep 24 15:20:07 2008 GMT
            Not After : Sep 23 15:20:07 2013 GMT
        Subject: C=US, ST=Florida, O=ZeroC, Inc., OU=Ice/emailAddress=info@zeroc.com, CN=Client
        Subject Public Key Info:
            Public Key Algorithm: rsaEncryption
            RSA Public Key: (1024 bit)
                Modulus (1024 bit):
                    00:bf:65:37:49:ff:55:21:d2:6c:78:e6:d1:3f:97:
                    31:13:fc:6c:ff:17:8e:00:47:26:fd:f9:d6:98:d2:
                    60:c1:c9:a9:50:7a:c3:68:9f:7d:b4:30:80:f1:94:
                    74:6e:48:da:24:48:94:fb:36:ab:27:17:8f:8e:36:
                    23:dd:ac:f5:07:c5:9b:e5:59:8a:0d:ff:07:fd:15:
                    e5:8f:03:ab:7a:20:05:99:75:8d:ae:d6:a0:44:b3:
                    03:79:fc:5d:72:19:48:cc:a5:97:4c:d0:07:8f:be:
                    d7:dc:91:76:2e:f4:05:23:bf:a3:57:4e:b2:fa:d1:
                    5c:32:a6:61:79:a6:cf:5f:a9
                Exponent: 65537 (0x10001)
        X509v3 extensions:
            X509v3 Basic Constraints: 
                CA:FALSE
            X509v3 Subject Key Identifier: 
                53:79:B0:FC:CF:F2:CB:6B:E4:08:EA:6D:07:AC:43:CB:75:D5:2E:C9
            X509v3 Authority Key Identifier: 
                keyid:9D:74:09:C8:8B:96:5D:99:7F:55:30:AF:57:4C:60:EA:7C:08:C7:7E
                DirName:/C=US/ST=Florida/L=Palm Beach Gardens/O=ZeroC, Inc./OU=Ice/CN=ZeroC Test CA (Objective-C)/emailAddress=info@zeroc.com
                serial:88:9E:56:03:C1:BD:6C:3E

            X509v3 Subject Alternative Name: 
                DNS:client, IP Address:127.0.0.1
    Signature Algorithm: md5WithRSAEncryption
        03:35:91:b1:e9:8a:21:25:c3:78:1c:02:cd:7e:83:bc:46:81:
        0a:0f:f3:32:b4:e3:62:0d:93:91:df:f0:98:12:34:3d:a1:55:
        ef:a2:87:7e:b2:56:f0:4a:08:f7:41:df:52:98:d7:8a:b1:90:
        8e:20:ec:41:59:aa:fe:65:54:08:9a:19:f9:61:8c:c5:7c:af:
        4c:e5:dd:af:a9:4c:61:f9:01:bc:f9:61:d0:e6:e7:79:4f:25:
        44:7a:cd:30:7f:50:c7:ab:12:13:86:9c:66:8b:25:03:d4:ed:
        ad:da:43:cf:fb:29:57:2d:7c:07:c8:22:26:f1:f8:73:ea:f7:
        2f:5f
-----BEGIN CERTIFICATE-----
MIIDtTCCAx6gAwIBAgIBAjANBgkqhkiG9w0BAQQFADCBpTELMAkGA1UEBhMCVVMx
EDAOBgNVBAgTB0Zsb3JpZGExGzAZBgNVBAcTElBhbG0gQmVhY2ggR2FyZGVuczEU
MBIGA1UEChMLWmVyb0MsIEluYy4xDDAKBgNVBAsTA0ljZTEkMCIGA1UEAxMbWmVy
b0MgVGVzdCBDQSAoT2JqZWN0aXZlLUMpMR0wGwYJKoZIhvcNAQkBFg5pbmZvQHpl
cm9jLmNvbTAeFw0wODA5MjQxNTIwMDdaFw0xMzA5MjMxNTIwMDdaMHMxCzAJBgNV
BAYTAlVTMRAwDgYDVQQIEwdGbG9yaWRhMRQwEgYDVQQKEwtaZXJvQywgSW5jLjEM
MAoGA1UECxMDSWNlMR0wGwYJKoZIhvcNAQkBFg5pbmZvQHplcm9jLmNvbTEPMA0G
A1UEAxMGQ2xpZW50MIGfMA0GCSqGSIb3DQEBAQUAA4GNADCBiQKBgQC/ZTdJ/1Uh
0mx45tE/lzET/Gz/F44ARyb9+daY0mDByalQesNon320MIDxlHRuSNokSJT7Nqsn
F4+ONiPdrPUHxZvlWYoN/wf9FeWPA6t6IAWZdY2u1qBEswN5/F1yGUjMpZdM0AeP
vtfckXYu9AUjv6NXTrL60VwypmF5ps9fqQIDAQABo4IBJDCCASAwCQYDVR0TBAIw
ADAdBgNVHQ4EFgQUU3mw/M/yy2vkCOptB6xDy3XVLskwgdoGA1UdIwSB0jCBz4AU
nXQJyIuWXZl/VTCvV0xg6nwIx36hgaukgagwgaUxCzAJBgNVBAYTAlVTMRAwDgYD
VQQIEwdGbG9yaWRhMRswGQYDVQQHExJQYWxtIEJlYWNoIEdhcmRlbnMxFDASBgNV
BAoTC1plcm9DLCBJbmMuMQwwCgYDVQQLEwNJY2UxJDAiBgNVBAMTG1plcm9DIFRl
c3QgQ0EgKE9iamVjdGl2ZS1DKTEdMBsGCSqGSIb3DQEJARYOaW5mb0B6ZXJvYy5j
b22CCQCInlYDwb1sPjAXBgNVHREEEDAOggZjbGllbnSHBH8AAAEwDQYJKoZIhvcN
AQEEBQADgYEAAzWRsemKISXDeBwCzX6DvEaBCg/zMrTjYg2Tkd/wmBI0PaFV76KH
frJW8EoI90HfUpjXirGQjiDsQVmq/mVUCJoZ+WGMxXyvTOXdr6lMYfkBvPlh0Obn
eU8lRHrNMH9Qx6sSE4acZoslA9TtrdpDz/spVy18B8giJvH4c+r3L18=
-----END CERTIFICATE-----
