Certificate:
    Data:
        Version: 3 (0x2)
        Serial Number: 1 (0x1)
        Signature Algorithm: md5WithRSAEncryption
        Issuer: C=US, ST=Florida, L=Palm Beach Gardens, O=ZeroC, Inc., OU=Ice, CN=ZeroC Test CA (Objective-C)/emailAddress=info@zeroc.com
        Validity
            Not Before: Sep 24 15:20:07 2008 GMT
            Not After : Sep 23 15:20:07 2013 GMT
        Subject: C=US, ST=Florida, O=ZeroC, Inc., OU=Ice/emailAddress=info@zeroc.com, CN=Server
        Subject Public Key Info:
            Public Key Algorithm: rsaEncryption
            RSA Public Key: (1024 bit)
                Modulus (1024 bit):
                    00:e9:58:60:a7:99:85:f1:51:50:c3:bf:72:67:6a:
                    fd:76:57:5f:ed:fc:5a:be:16:09:a2:26:9d:33:0c:
                    93:6e:7f:c9:a9:77:56:f3:79:50:b6:50:5e:4d:83:
                    f3:85:fe:7e:87:fe:de:b2:fa:44:3b:57:fd:f0:b7:
                    c5:a6:40:1e:67:c0:a8:b8:83:cd:e5:f1:6c:e0:f1:
                    0f:24:4f:b4:56:e8:93:43:79:b3:23:0a:db:ab:ec:
                    22:11:c2:c5:21:ea:0d:32:28:db:4a:6c:69:ee:06:
                    4e:c5:6d:a6:c0:9a:c3:a8:7c:d8:53:21:fb:73:f6:
                    15:bf:f2:dd:2c:1e:69:e3:29
                Exponent: 65537 (0x10001)
        X509v3 extensions:
            X509v3 Basic Constraints: 
                CA:FALSE
            X509v3 Subject Key Identifier: 
                A7:00:B4:54:05:74:B4:9B:71:8D:7B:47:F9:80:DA:8B:F0:57:B2:67
            X509v3 Authority Key Identifier: 
                keyid:9D:74:09:C8:8B:96:5D:99:7F:55:30:AF:57:4C:60:EA:7C:08:C7:7E
                DirName:/C=US/ST=Florida/L=Palm Beach Gardens/O=ZeroC, Inc./OU=Ice/CN=ZeroC Test CA (Objective-C)/emailAddress=info@zeroc.com
                serial:88:9E:56:03:C1:BD:6C:3E

            X509v3 Subject Alternative Name: 
                DNS:server, IP Address:127.0.0.1
    Signature Algorithm: md5WithRSAEncryption
        50:92:c5:09:8b:de:58:98:b7:99:e5:89:f7:82:6d:46:1e:e8:
        7d:7e:60:de:51:59:4e:38:14:13:8a:84:ae:85:37:50:42:9b:
        a4:47:ab:7b:0a:0e:a7:4a:65:aa:45:7a:a4:c9:91:5d:b9:57:
        c0:48:a0:e8:bc:a3:6a:68:93:04:ae:db:e3:5a:b1:29:b3:ff:
        d3:b4:86:3e:ec:2c:10:a4:c2:df:b6:84:cd:19:2c:10:43:43:
        f8:ed:72:87:ea:cd:d3:cc:66:c7:9b:43:c1:d6:68:9b:9a:28:
        3d:94:df:bc:7e:15:88:6f:c2:60:29:55:61:de:0e:29:81:e3:
        01:42
-----BEGIN CERTIFICATE-----
MIIDtTCCAx6gAwIBAgIBATANBgkqhkiG9w0BAQQFADCBpTELMAkGA1UEBhMCVVMx
EDAOBgNVBAgTB0Zsb3JpZGExGzAZBgNVBAcTElBhbG0gQmVhY2ggR2FyZGVuczEU
MBIGA1UEChMLWmVyb0MsIEluYy4xDDAKBgNVBAsTA0ljZTEkMCIGA1UEAxMbWmVy
b0MgVGVzdCBDQSAoT2JqZWN0aXZlLUMpMR0wGwYJKoZIhvcNAQkBFg5pbmZvQHpl
cm9jLmNvbTAeFw0wODA5MjQxNTIwMDdaFw0xMzA5MjMxNTIwMDdaMHMxCzAJBgNV
BAYTAlVTMRAwDgYDVQQIEwdGbG9yaWRhMRQwEgYDVQQKEwtaZXJvQywgSW5jLjEM
MAoGA1UECxMDSWNlMR0wGwYJKoZIhvcNAQkBFg5pbmZvQHplcm9jLmNvbTEPMA0G
A1UEAxMGU2VydmVyMIGfMA0GCSqGSIb3DQEBAQUAA4GNADCBiQKBgQDpWGCnmYXx
UVDDv3Jnav12V1/t/Fq+FgmiJp0zDJNuf8mpd1bzeVC2UF5Ng/OF/n6H/t6y+kQ7
V/3wt8WmQB5nwKi4g83l8Wzg8Q8kT7RW6JNDebMjCtur7CIRwsUh6g0yKNtKbGnu
Bk7FbabAmsOofNhTIftz9hW/8t0sHmnjKQIDAQABo4IBJDCCASAwCQYDVR0TBAIw
ADAdBgNVHQ4EFgQUpwC0VAV0tJtxjXtH+YDai/BXsmcwgdoGA1UdIwSB0jCBz4AU
nXQJyIuWXZl/VTCvV0xg6nwIx36hgaukgagwgaUxCzAJBgNVBAYTAlVTMRAwDgYD
VQQIEwdGbG9yaWRhMRswGQYDVQQHExJQYWxtIEJlYWNoIEdhcmRlbnMxFDASBgNV
BAoTC1plcm9DLCBJbmMuMQwwCgYDVQQLEwNJY2UxJDAiBgNVBAMTG1plcm9DIFRl
c3QgQ0EgKE9iamVjdGl2ZS1DKTEdMBsGCSqGSIb3DQEJARYOaW5mb0B6ZXJvYy5j
b22CCQCInlYDwb1sPjAXBgNVHREEEDAOggZzZXJ2ZXKHBH8AAAEwDQYJKoZIhvcN
AQEEBQADgYEAUJLFCYveWJi3meWJ94JtRh7ofX5g3lFZTjgUE4qEroU3UEKbpEer
ewoOp0plqkV6pMmRXblXwEig6LyjamiTBK7b41qxKbP/07SGPuwsEKTC37aEzRks
EEND+O1yh+rN08xmx5tDwdZom5ooPZTfvH4ViG/CYClVYd4OKYHjAUI=
-----END CERTIFICATE-----
