Certificate:
    Data:
        Version: 3 (0x2)
        Serial Number: 1 (0x1)
        Signature Algorithm: md5WithRSAEncryption
        Issuer: C=US, ST=Florida, L=Palm Beach Gardens, O=ZeroC, Inc., OU=Ice, CN=ZeroC Test CA (Objective-C)/emailAddress=info@zeroc.com
        Validity
            Not Before: Jul 21 20:19:39 2011 GMT
            Not After : Jul 19 20:19:39 2016 GMT
        Subject: C=US, ST=Florida, O=ZeroC, Inc., OU=Ice/emailAddress=info@zeroc.com, CN=Server
        Subject Public Key Info:
            Public Key Algorithm: rsaEncryption
            RSA Public Key: (1024 bit)
                Modulus (1024 bit):
                    00:a4:0c:aa:1b:46:ca:89:24:e8:1d:96:5b:a1:b7:
                    0f:6b:60:bc:c9:27:6c:46:5a:4c:38:95:8d:70:78:
                    da:ff:f9:4f:b9:b7:77:40:c5:fe:b2:68:29:8f:d0:
                    01:a3:2e:f0:86:58:7e:51:f1:ce:7a:15:e6:04:ee:
                    e9:38:89:96:38:56:50:5d:8e:2a:75:af:f8:57:b4:
                    50:7d:7e:d7:0a:0d:78:39:ef:68:5e:4e:40:be:4e:
                    07:7d:5a:bd:31:71:ce:a2:86:8c:12:6d:42:eb:e1:
                    7c:61:28:4c:35:95:ba:22:8f:02:9d:fd:30:2a:0b:
                    6a:67:5d:36:9a:39:e6:fa:47
                Exponent: 65537 (0x10001)
        X509v3 extensions:
            X509v3 Basic Constraints: 
                CA:FALSE
            X509v3 Subject Key Identifier: 
                C8:F7:C7:70:31:B0:69:41:FF:20:37:BE:07:C2:8D:FC:24:88:B6:40
            X509v3 Authority Key Identifier: 
                keyid:C2:69:07:D1:CE:09:CB:E5:A7:CB:5D:9E:D1:FC:9A:C5:4D:76:E7:B0
                DirName:/C=US/ST=Florida/L=Palm Beach Gardens/O=ZeroC, Inc./OU=Ice/CN=ZeroC Test CA (Objective-C)/emailAddress=info@zeroc.com
                serial:D2:76:A3:BC:FD:AF:EA:D9

            X509v3 Subject Alternative Name: 
                DNS:server, IP Address:127.0.0.1
    Signature Algorithm: md5WithRSAEncryption
        64:49:65:4a:18:10:99:28:17:15:f3:12:a7:60:72:b5:21:8a:
        ef:e6:95:0c:dc:6e:6b:87:e2:13:4a:93:6c:2c:80:03:7e:62:
        e3:f8:e8:84:88:75:99:18:a3:01:ce:a1:f8:b4:64:1c:ee:8b:
        fc:c5:dc:c4:27:e1:c8:d9:19:09:5a:0f:97:e5:c2:5f:b9:08:
        bf:17:9e:7f:e9:da:30:bc:e6:ab:55:51:a3:b0:9a:74:a9:8e:
        1c:e6:ee:f7:de:7d:92:3d:bc:4a:ae:25:be:01:d0:0f:8a:73:
        80:0b:86:a4:96:17:38:f3:38:db:a9:a9:4c:a0:45:44:bf:fe:
        9c:2e
-----BEGIN CERTIFICATE-----
MIIDtTCCAx6gAwIBAgIBATANBgkqhkiG9w0BAQQFADCBpTELMAkGA1UEBhMCVVMx
EDAOBgNVBAgTB0Zsb3JpZGExGzAZBgNVBAcTElBhbG0gQmVhY2ggR2FyZGVuczEU
MBIGA1UEChMLWmVyb0MsIEluYy4xDDAKBgNVBAsTA0ljZTEkMCIGA1UEAxMbWmVy
b0MgVGVzdCBDQSAoT2JqZWN0aXZlLUMpMR0wGwYJKoZIhvcNAQkBFg5pbmZvQHpl
cm9jLmNvbTAeFw0xMTA3MjEyMDE5MzlaFw0xNjA3MTkyMDE5MzlaMHMxCzAJBgNV
BAYTAlVTMRAwDgYDVQQIEwdGbG9yaWRhMRQwEgYDVQQKEwtaZXJvQywgSW5jLjEM
MAoGA1UECxMDSWNlMR0wGwYJKoZIhvcNAQkBFg5pbmZvQHplcm9jLmNvbTEPMA0G
A1UEAxMGU2VydmVyMIGfMA0GCSqGSIb3DQEBAQUAA4GNADCBiQKBgQCkDKobRsqJ
JOgdlluhtw9rYLzJJ2xGWkw4lY1weNr/+U+5t3dAxf6yaCmP0AGjLvCGWH5R8c56
FeYE7uk4iZY4VlBdjip1r/hXtFB9ftcKDXg572heTkC+Tgd9Wr0xcc6ihowSbULr
4XxhKEw1lboijwKd/TAqC2pnXTaaOeb6RwIDAQABo4IBJDCCASAwCQYDVR0TBAIw
ADAdBgNVHQ4EFgQUyPfHcDGwaUH/IDe+B8KN/CSItkAwgdoGA1UdIwSB0jCBz4AU
wmkH0c4Jy+Wny12e0fyaxU1257ChgaukgagwgaUxCzAJBgNVBAYTAlVTMRAwDgYD
VQQIEwdGbG9yaWRhMRswGQYDVQQHExJQYWxtIEJlYWNoIEdhcmRlbnMxFDASBgNV
BAoTC1plcm9DLCBJbmMuMQwwCgYDVQQLEwNJY2UxJDAiBgNVBAMTG1plcm9DIFRl
c3QgQ0EgKE9iamVjdGl2ZS1DKTEdMBsGCSqGSIb3DQEJARYOaW5mb0B6ZXJvYy5j
b22CCQDSdqO8/a/q2TAXBgNVHREEEDAOggZzZXJ2ZXKHBH8AAAEwDQYJKoZIhvcN
AQEEBQADgYEAZEllShgQmSgXFfMSp2BytSGK7+aVDNxua4fiE0qTbCyAA35i4/jo
hIh1mRijAc6h+LRkHO6L/MXcxCfhyNkZCVoPl+XCX7kIvxeef+naMLzmq1VRo7Ca
dKmOHObu9959kj28Sq4lvgHQD4pzgAuGpJYXOPM426mpTKBFRL/+nC4=
-----END CERTIFICATE-----
