Certificate:
    Data:
        Version: 3 (0x2)
        Serial Number: 1 (0x1)
        Signature Algorithm: md5WithRSAEncryption
        Issuer: C=US, ST=Florida, L=Palm Beach Gardens, O=ZeroC, Inc., OU=Ice, CN=ZeroC Test CA/emailAddress=info@zeroc.com
        Validity
            Not Before: Sep 24 12:30:24 2008 GMT
            Not After : Sep 23 12:30:24 2013 GMT
        Subject: C=US, ST=Florida, O=ZeroC, Inc., OU=Ice/emailAddress=info@zeroc.com, CN=Server
        Subject Public Key Info:
            Public Key Algorithm: rsaEncryption
            RSA Public Key: (1024 bit)
                Modulus (1024 bit):
                    00:dc:28:c3:99:5a:37:59:97:95:b8:d2:fb:a9:39:
                    12:94:07:dc:26:f5:53:98:92:21:c1:97:55:66:77:
                    8c:89:26:e9:36:7f:e3:8e:25:69:c4:f2:c6:95:02:
                    8d:3b:d2:fc:24:c9:7c:d4:2f:1e:5e:11:d6:0d:cb:
                    6d:4f:aa:1d:c2:2c:cd:d4:44:a4:b1:61:79:ac:0a:
                    5f:cd:4e:bd:fc:41:e7:13:22:52:79:55:53:16:88:
                    26:07:d8:c4:09:de:a3:ec:83:ed:42:27:d3:19:cd:
                    d6:0d:ed:bb:fe:c5:d4:57:c3:03:16:7c:35:48:14:
                    7a:b9:02:c1:27:f9:80:d2:8b
                Exponent: 65537 (0x10001)
        X509v3 extensions:
            X509v3 Basic Constraints: 
                CA:FALSE
            X509v3 Subject Key Identifier: 
                5F:C2:A2:2E:94:0A:93:F0:C8:73:33:5F:E3:77:A1:07:EE:63:45:05
            X509v3 Authority Key Identifier: 
                keyid:95:0C:16:E7:79:AF:91:62:68:68:E1:AB:90:01:E9:D9:E3:69:CF:57
                DirName:/C=US/ST=Florida/L=Palm Beach Gardens/O=ZeroC, Inc./OU=Ice/CN=ZeroC Test CA/emailAddress=info@zeroc.com
                serial:DA:EA:6A:1B:FD:74:3A:D9

            X509v3 Subject Alternative Name: 
                DNS:server, IP Address:127.0.0.1
    Signature Algorithm: md5WithRSAEncryption
        22:0e:6d:3d:98:cb:b5:38:92:53:b1:ba:42:9e:68:18:5c:0a:
        d2:5b:6c:ae:dd:74:28:c6:11:ee:8e:f5:47:f4:ff:79:23:1e:
        dc:31:10:b6:76:34:ce:33:bc:e3:df:16:8e:8f:e6:68:cf:ae:
        7c:f9:e3:0e:17:c9:27:f3:75:1a:ae:6d:39:80:7e:dd:af:c3:
        b9:30:c5:a3:9e:b8:a2:7c:cb:c3:88:12:b2:11:81:09:c8:66:
        17:4f:7b:c5:31:83:87:48:11:39:17:94:dd:92:ef:02:7c:95:
        7b:c4:7d:ef:27:20:27:72:4e:cb:81:00:c0:72:b8:02:ec:7c:
        20:af
-----BEGIN CERTIFICATE-----
MIIDmTCCAwKgAwIBAgIBATANBgkqhkiG9w0BAQQFADCBlzELMAkGA1UEBhMCVVMx
EDAOBgNVBAgTB0Zsb3JpZGExGzAZBgNVBAcTElBhbG0gQmVhY2ggR2FyZGVuczEU
MBIGA1UEChMLWmVyb0MsIEluYy4xDDAKBgNVBAsTA0ljZTEWMBQGA1UEAxMNWmVy
b0MgVGVzdCBDQTEdMBsGCSqGSIb3DQEJARYOaW5mb0B6ZXJvYy5jb20wHhcNMDgw
OTI0MTIzMDI0WhcNMTMwOTIzMTIzMDI0WjBzMQswCQYDVQQGEwJVUzEQMA4GA1UE
CBMHRmxvcmlkYTEUMBIGA1UEChMLWmVyb0MsIEluYy4xDDAKBgNVBAsTA0ljZTEd
MBsGCSqGSIb3DQEJARYOaW5mb0B6ZXJvYy5jb20xDzANBgNVBAMTBlNlcnZlcjCB
nzANBgkqhkiG9w0BAQEFAAOBjQAwgYkCgYEA3CjDmVo3WZeVuNL7qTkSlAfcJvVT
mJIhwZdVZneMiSbpNn/jjiVpxPLGlQKNO9L8JMl81C8eXhHWDcttT6odwizN1ESk
sWF5rApfzU69/EHnEyJSeVVTFogmB9jECd6j7IPtQifTGc3WDe27/sXUV8MDFnw1
SBR6uQLBJ/mA0osCAwEAAaOCARYwggESMAkGA1UdEwQCMAAwHQYDVR0OBBYEFF/C
oi6UCpPwyHMzX+N3oQfuY0UFMIHMBgNVHSMEgcQwgcGAFJUMFud5r5FiaGjhq5AB
6dnjac9XoYGdpIGaMIGXMQswCQYDVQQGEwJVUzEQMA4GA1UECBMHRmxvcmlkYTEb
MBkGA1UEBxMSUGFsbSBCZWFjaCBHYXJkZW5zMRQwEgYDVQQKEwtaZXJvQywgSW5j
LjEMMAoGA1UECxMDSWNlMRYwFAYDVQQDEw1aZXJvQyBUZXN0IENBMR0wGwYJKoZI
hvcNAQkBFg5pbmZvQHplcm9jLmNvbYIJANrqahv9dDrZMBcGA1UdEQQQMA6CBnNl
cnZlcocEfwAAATANBgkqhkiG9w0BAQQFAAOBgQAiDm09mMu1OJJTsbpCnmgYXArS
W2yu3XQoxhHujvVH9P95Ix7cMRC2djTOM7zj3xaOj+Zoz658+eMOF8kn83Uarm05
gH7dr8O5MMWjnriifMvDiBKyEYEJyGYXT3vFMYOHSBE5F5Tdku8CfJV7xH3vJyAn
ck7LgQDAcrgC7Hwgrw==
-----END CERTIFICATE-----
