Certificate:
    Data:
        Version: 3 (0x2)
        Serial Number: 1 (0x1)
        Signature Algorithm: sha256WithRSAEncryption
        Issuer: C=US, ST=Florida, L=Palm Beach Gardens, O=ZeroC, Inc., OU=Ice, CN=ZeroC Test CA/emailAddress=info@zeroc.com
        Validity
            Not Before: Nov  8 02:31:10 2011 GMT
            Not After : Nov  6 02:31:10 2016 GMT
        Subject: C=US, ST=Florida, O=ZeroC, Inc., OU=Ice/emailAddress=info@zeroc.com, CN=Client
        Subject Public Key Info:
            Public Key Algorithm: dsaEncryption
                pub: 
                    7b:4c:8d:36:ed:04:c4:4c:46:d4:b6:b9:89:a0:62:
                    38:2d:e0:17:04:78:04:f6:9e:4d:4f:fa:d3:b7:3f:
                    9b:3e:cb:53:f6:99:12:f7:8e:57:c3:8e:85:14:6c:
                    e3:fe:1f:ee:d2:55:c9:73:c0:b4:49:05:d5:06:84:
                    03:19:f4:b9:cd:82:f1:de:8d:1d:f6:72:81:70:c2:
                    67:a0:df:7d:4c:96:22:23:ac:14:f5:3e:56:59:fb:
                    bb:2e:de:95:89:20:75:1e:30:34:71:f6:0f:50:26:
                    a3:e5:91:b2:cd:9c:98:b4:18:e6:40:ff:b3:7e:44:
                    9b:45:96:98:f3:7c:ea:32
                P:   
                    00:91:30:32:5d:22:33:90:fb:ba:c4:cf:2d:06:9c:
                    d3:7c:90:40:8f:32:33:b6:53:72:c3:1f:5e:dc:12:
                    4f:55:09:1d:a4:95:02:9d:36:13:e7:bb:87:c3:ce:
                    b3:00:8f:c1:a7:d2:88:05:20:29:33:41:23:5a:36:
                    38:96:4b:2e:81:4d:61:70:4f:38:97:35:7e:91:7e:
                    82:a0:32:69:1f:b8:ce:48:c3:23:68:9a:4c:ec:0d:
                    da:82:b3:d6:46:ef:ee:da:7c:95:55:a6:f4:56:d4:
                    cb:6e:b7:eb:fe:d3:e8:f9:b9:81:0a:f3:8f:05:9c:
                    d9:89:a7:b3:91:22:82:fe:a7
                Q:   
                    00:ba:9b:8c:fb:61:69:64:6e:aa:08:40:6e:5c:38:
                    47:51:73:53:a3:c7
                G:   
                    00:91:07:a3:3e:c4:a0:c0:fa:56:05:2f:7b:16:8b:
                    24:25:c4:4d:c4:3b:58:24:e0:d9:e2:01:bd:0d:5b:
                    35:da:74:c9:81:b5:37:35:39:12:06:7e:7c:0d:0e:
                    69:70:81:b9:73:27:fa:bf:5c:df:9b:c5:b5:a8:7e:
                    f5:20:57:9b:80:44:8b:14:be:8e:92:a8:74:b1:aa:
                    1d:7b:e0:d3:45:1e:6c:54:2d:f2:39:de:bf:a6:75:
                    b8:d3:9a:78:52:75:99:fa:39:50:d3:4d:8c:ad:15:
                    9f:27:01:ca:7e:cc:b4:1e:18:68:17:71:21:8f:a6:
                    e6:63:7b:ee:34:64:1a:b6:49
        X509v3 extensions:
            X509v3 Basic Constraints: 
                CA:FALSE
            X509v3 Subject Key Identifier: 
                BB:EB:9F:0F:A3:00:C2:FB:0E:85:70:72:D3:FF:A2:0A:25:DA:86:DC
            X509v3 Authority Key Identifier: 
                keyid:DC:87:74:D2:7B:B2:0D:8F:CA:E4:43:1C:A4:01:40:76:6E:23:C8:41
                DirName:/C=US/ST=Florida/L=Palm Beach Gardens/O=ZeroC, Inc./OU=Ice/CN=ZeroC Test CA/emailAddress=info@zeroc.com
                serial:DC:8E:96:A0:13:88:1A:96

            X509v3 Subject Alternative Name: 
                DNS:client, IP Address:127.0.0.1
    Signature Algorithm: sha256WithRSAEncryption
        62:53:47:e4:50:31:b0:16:6e:71:c1:5d:1f:4a:8d:ab:4d:c9:
        f0:ab:7b:a9:5f:88:1d:d3:5c:44:ba:8f:6a:09:d1:d1:40:7a:
        75:2d:08:24:15:2a:cf:a6:c9:d7:a6:66:64:73:dd:e9:c4:03:
        10:4e:e2:09:ec:1f:fa:af:88:1a:c3:93:d8:a6:be:81:d2:87:
        8c:46:11:c1:e0:1e:67:e5:ac:8c:17:e0:eb:53:26:11:4f:e6:
        21:ba:16:c5:67:08:dc:f2:cb:8a:9e:9a:88:d9:1e:4d:c2:26:
        34:fb:3c:30:1c:81:5c:cd:49:a2:61:f0:ea:1e:1f:8e:99:9d:
        81:bc
-----BEGIN CERTIFICATE-----
MIIEsjCCBBugAwIBAgIBATANBgkqhkiG9w0BAQsFADCBlzELMAkGA1UEBhMCVVMx
EDAOBgNVBAgTB0Zsb3JpZGExGzAZBgNVBAcTElBhbG0gQmVhY2ggR2FyZGVuczEU
MBIGA1UEChMLWmVyb0MsIEluYy4xDDAKBgNVBAsTA0ljZTEWMBQGA1UEAxMNWmVy
b0MgVGVzdCBDQTEdMBsGCSqGSIb3DQEJARYOaW5mb0B6ZXJvYy5jb20wHhcNMTEx
MTA4MDIzMTEwWhcNMTYxMTA2MDIzMTEwWjBzMQswCQYDVQQGEwJVUzEQMA4GA1UE
CBMHRmxvcmlkYTEUMBIGA1UEChMLWmVyb0MsIEluYy4xDDAKBgNVBAsTA0ljZTEd
MBsGCSqGSIb3DQEJARYOaW5mb0B6ZXJvYy5jb20xDzANBgNVBAMTBkNsaWVudDCC
AbcwggEsBgcqhkjOOAQBMIIBHwKBgQCRMDJdIjOQ+7rEzy0GnNN8kECPMjO2U3LD
H17cEk9VCR2klQKdNhPnu4fDzrMAj8Gn0ogFICkzQSNaNjiWSy6BTWFwTziXNX6R
foKgMmkfuM5IwyNomkzsDdqCs9ZG7+7afJVVpvRW1Mtut+v+0+j5uYEK848FnNmJ
p7ORIoL+pwIVALqbjPthaWRuqghAblw4R1FzU6PHAoGBAJEHoz7EoMD6VgUvexaL
JCXETcQ7WCTg2eIBvQ1bNdp0yYG1NzU5EgZ+fA0OaXCBuXMn+r9c35vFtah+9SBX
m4BEixS+jpKodLGqHXvg00UebFQt8jnev6Z1uNOaeFJ1mfo5UNNNjK0VnycByn7M
tB4YaBdxIY+m5mN77jRkGrZJA4GEAAKBgHtMjTbtBMRMRtS2uYmgYjgt4BcEeAT2
nk1P+tO3P5s+y1P2mRL3jlfDjoUUbOP+H+7SVclzwLRJBdUGhAMZ9LnNgvHejR32
coFwwmeg331MliIjrBT1PlZZ+7su3pWJIHUeMDRx9g9QJqPlkbLNnJi0GOZA/7N+
RJtFlpjzfOoyo4IBFjCCARIwCQYDVR0TBAIwADAdBgNVHQ4EFgQUu+ufD6MAwvsO
hXBy0/+iCiXahtwwgcwGA1UdIwSBxDCBwYAU3Id00nuyDY/K5EMcpAFAdm4jyEGh
gZ2kgZowgZcxCzAJBgNVBAYTAlVTMRAwDgYDVQQIEwdGbG9yaWRhMRswGQYDVQQH
ExJQYWxtIEJlYWNoIEdhcmRlbnMxFDASBgNVBAoTC1plcm9DLCBJbmMuMQwwCgYD
VQQLEwNJY2UxFjAUBgNVBAMTDVplcm9DIFRlc3QgQ0ExHTAbBgkqhkiG9w0BCQEW
DmluZm9AemVyb2MuY29tggkA3I6WoBOIGpYwFwYDVR0RBBAwDoIGY2xpZW50hwR/
AAABMA0GCSqGSIb3DQEBCwUAA4GBAGJTR+RQMbAWbnHBXR9KjatNyfCre6lfiB3T
XES6j2oJ0dFAenUtCCQVKs+mydemZmRz3enEAxBO4gnsH/qviBrDk9imvoHSh4xG
EcHgHmflrIwX4OtTJhFP5iG6FsVnCNzyy4qemojZHk3CJjT7PDAcgVzNSaJh8Ooe
H46ZnYG8
-----END CERTIFICATE-----
