Certificate:
    Data:
        Version: 3 (0x2)
        Serial Number: 2 (0x2)
        Signature Algorithm: md5WithRSAEncryption
        Issuer: C=US, ST=Florida, L=Palm Beach Gardens, O=ZeroC, Inc., OU=Ice, CN=ZeroC Test CA/emailAddress=info@zeroc.com
        Validity
            Not Before: Sep 23 16:06:37 2008 GMT
            Not After : Sep 22 16:06:37 2013 GMT
        Subject: C=US, ST=Florida, O=ZeroC, Inc., OU=Ice/emailAddress=info@zeroc.com, CN=Client
        Subject Public Key Info:
            Public Key Algorithm: dsaEncryption
            DSA Public Key:
                pub: 
                    05:10:32:e1:ea:d6:1c:22:99:73:4c:df:d6:63:95:
                    8a:b4:33:b2:90:71:49:76:14:40:54:2a:bf:a2:03:
                    62:b2:e2:5b:67:49:30:b5:d5:e1:8d:76:c6:58:25:
                    25:7e:00:ff:3c:4e:d7:e5:ce:66:15:3b:c2:2e:72:
                    72:9d:90:fc:e8:8a:a9:81:ea:38:d0:e7:23:c8:27:
                    50:17:5a:2c:77:20:3a:b4:76:0f:f4:64:f0:03:35:
                    5f:fc:54:41:b8:ca:3f:73:95:7c:61:fe:d4:77:a8:
                    1c:2d:59:83:5f:38:8e:67:49:7b:91:a9:74:49:7a:
                    38:27:0a:3d:bf:46:ac:ad
                P:   
                    00:95:a9:29:49:5b:52:6d:dc:75:55:b3:b2:c5:50:
                    c9:00:53:2f:8f:cf:74:b9:9a:7b:8d:53:2c:bf:62:
                    0b:9a:bc:92:9e:d5:1a:6d:7b:02:60:bd:52:3e:b7:
                    9a:86:50:5f:a1:78:28:fa:5b:f7:12:7c:30:79:ae:
                    5c:33:ef:6e:32:5a:45:16:f0:eb:fd:c7:4a:38:c1:
                    d5:8d:e2:18:24:7c:cd:65:49:f2:07:fb:53:c8:d5:
                    60:1f:3d:9a:8e:76:f1:67:9f:07:2b:97:5e:06:9b:
                    5c:34:19:05:a1:ca:42:7f:f6:eb:1f:df:ba:f6:f7:
                    85:fc:c4:82:4e:8f:67:55:e5
                Q:   
                    00:b9:ae:d5:c1:17:6b:dc:53:22:18:0e:31:c6:34:
                    cf:84:c3:54:e5:2b
                G:   
                    0c:ea:4e:b1:d7:14:47:b7:3b:ce:89:f8:65:4e:c7:
                    7b:32:10:3e:0e:fd:db:27:12:6e:a6:92:95:28:63:
                    5a:c7:f6:a3:34:9c:67:e3:cd:09:83:96:6c:b9:a4:
                    d2:1e:37:6e:d6:b2:04:b2:8c:13:39:42:e2:5b:88:
                    8d:ea:a2:98:2b:1d:9d:1c:1b:0f:21:0d:3c:83:2f:
                    d6:c8:33:70:c1:6c:df:90:ed:c4:b0:2b:b3:5e:d5:
                    21:71:b1:c2:aa:1c:bf:66:e9:3a:1a:ba:13:23:ee:
                    78:ef:bf:b9:26:ef:b3:b8:b2:a2:8a:88:82:db:30:
                    e1:d9:cf:86:24:20:61:13
        X509v3 extensions:
            X509v3 Basic Constraints: 
                CA:FALSE
            X509v3 Subject Key Identifier: 
                09:AE:A1:29:53:99:25:D0:95:B2:88:AF:58:8A:C1:61:3A:4C:25:77
            X509v3 Authority Key Identifier: 
                keyid:86:65:22:33:1C:22:1E:8B:D6:4A:E0:75:FF:64:F7:21:04:B1:C1:81
                DirName:/C=US/ST=Florida/L=Palm Beach Gardens/O=ZeroC, Inc./OU=Ice/CN=ZeroC Test CA/emailAddress=info@zeroc.com
                serial:9D:F0:3A:44:48:FF:C1:37

            X509v3 Subject Alternative Name: 
                DNS:client, IP Address:127.0.0.1
    Signature Algorithm: md5WithRSAEncryption
        a6:ea:c0:ed:20:41:27:9a:ea:cb:cf:7a:2b:8e:7a:0c:b6:d5:
        ad:1a:c0:db:22:81:e2:9a:a2:e1:ab:e6:d8:c3:21:55:ef:e4:
        67:86:32:e9:84:d9:73:54:9c:93:a1:e1:2c:8d:16:6c:2a:01:
        e9:de:8e:4e:12:e1:fe:b8:d1:39:e3:2b:37:3a:a9:99:a5:9b:
        a9:d7:1f:b0:e8:cd:87:09:c9:dc:ba:e9:af:aa:c8:39:e2:d6:
        dc:c2:ca:62:2c:cd:cf:6e:47:f4:3e:95:7e:8b:16:16:df:33:
        0e:a3:8d:43:a7:f3:45:a0:63:2f:a3:f1:c6:94:9a:83:bc:d2:
        42:22
-----BEGIN CERTIFICATE-----
MIIEsTCCBBqgAwIBAgIBAjANBgkqhkiG9w0BAQQFADCBlzELMAkGA1UEBhMCVVMx
EDAOBgNVBAgTB0Zsb3JpZGExGzAZBgNVBAcTElBhbG0gQmVhY2ggR2FyZGVuczEU
MBIGA1UEChMLWmVyb0MsIEluYy4xDDAKBgNVBAsTA0ljZTEWMBQGA1UEAxMNWmVy
b0MgVGVzdCBDQTEdMBsGCSqGSIb3DQEJARYOaW5mb0B6ZXJvYy5jb20wHhcNMDgw
OTIzMTYwNjM3WhcNMTMwOTIyMTYwNjM3WjBzMQswCQYDVQQGEwJVUzEQMA4GA1UE
CBMHRmxvcmlkYTEUMBIGA1UEChMLWmVyb0MsIEluYy4xDDAKBgNVBAsTA0ljZTEd
MBsGCSqGSIb3DQEJARYOaW5mb0B6ZXJvYy5jb20xDzANBgNVBAMTBkNsaWVudDCC
AbYwggErBgcqhkjOOAQBMIIBHgKBgQCVqSlJW1Jt3HVVs7LFUMkAUy+Pz3S5mnuN
Uyy/YguavJKe1RptewJgvVI+t5qGUF+heCj6W/cSfDB5rlwz724yWkUW8Ov9x0o4
wdWN4hgkfM1lSfIH+1PI1WAfPZqOdvFnnwcrl14Gm1w0GQWhykJ/9usf37r294X8
xIJOj2dV5QIVALmu1cEXa9xTIhgOMcY0z4TDVOUrAoGADOpOsdcUR7c7zon4ZU7H
ezIQPg792ycSbqaSlShjWsf2ozScZ+PNCYOWbLmk0h43btayBLKMEzlC4luIjeqi
mCsdnRwbDyENPIMv1sgzcMFs35DtxLArs17VIXGxwqocv2bpOhq6EyPueO+/uSbv
s7iyooqIgtsw4dnPhiQgYRMDgYQAAoGABRAy4erWHCKZc0zf1mOVirQzspBxSXYU
QFQqv6IDYrLiW2dJMLXV4Y12xlglJX4A/zxO1+XOZhU7wi5ycp2Q/OiKqYHqONDn
I8gnUBdaLHcgOrR2D/Rk8AM1X/xUQbjKP3OVfGH+1HeoHC1Zg184jmdJe5GpdEl6
OCcKPb9GrK2jggEWMIIBEjAJBgNVHRMEAjAAMB0GA1UdDgQWBBQJrqEpU5kl0JWy
iK9YisFhOkwldzCBzAYDVR0jBIHEMIHBgBSGZSIzHCIei9ZK4HX/ZPchBLHBgaGB
naSBmjCBlzELMAkGA1UEBhMCVVMxEDAOBgNVBAgTB0Zsb3JpZGExGzAZBgNVBAcT
ElBhbG0gQmVhY2ggR2FyZGVuczEUMBIGA1UEChMLWmVyb0MsIEluYy4xDDAKBgNV
BAsTA0ljZTEWMBQGA1UEAxMNWmVyb0MgVGVzdCBDQTEdMBsGCSqGSIb3DQEJARYO
aW5mb0B6ZXJvYy5jb22CCQCd8DpESP/BNzAXBgNVHREEEDAOggZjbGllbnSHBH8A
AAEwDQYJKoZIhvcNAQEEBQADgYEApurA7SBBJ5rqy896K456DLbVrRrA2yKB4pqi
4avm2MMhVe/kZ4Yy6YTZc1Sck6HhLI0WbCoB6d6OThLh/rjROeMrNzqpmaWbqdcf
sOjNhwnJ3Lrpr6rIOeLW3MLKYizNz25H9D6VfosWFt8zDqONQ6fzRaBjL6PxxpSa
g7zSQiI=
-----END CERTIFICATE-----
