Certificate:
    Data:
        Version: 3 (0x2)
        Serial Number: 1 (0x1)
        Signature Algorithm: sha256WithRSAEncryption
        Issuer: C=US, ST=Florida, L=Palm Beach Gardens, O=ZeroC, Inc., OU=Ice, CN=ZeroC Test CA/emailAddress=info@zeroc.com
        Validity
            Not Before: Oct 19 17:34:41 2011 GMT
            Not After : Oct 17 17:34:41 2016 GMT
        Subject: C=US, ST=Florida, O=ZeroC, Inc., OU=Ice/emailAddress=info@zeroc.com, CN=Client
        Subject Public Key Info:
            Public Key Algorithm: rsaEncryption
                Public-Key: (1024 bit)
                Modulus:
                    00:e6:f4:b5:65:f1:22:15:81:c9:46:1f:18:4f:29:
                    4f:3a:67:4e:00:34:a9:84:6e:c8:8d:ba:2a:eb:d3:
                    4d:fa:61:1b:e3:9c:94:92:b6:39:b5:c7:02:6b:74:
                    42:60:4a:ff:87:62:a5:7d:87:82:cd:e5:96:41:4f:
                    ce:cb:b3:5b:76:be:0f:2e:4a:50:6f:10:9b:e0:1f:
                    f2:e6:a9:a1:85:ee:92:35:98:eb:8e:4f:c2:30:f7:
                    03:bf:35:6e:f2:32:90:6f:71:46:a7:10:30:4d:74:
                    0e:76:12:1e:bd:68:56:af:07:7a:2a:f8:16:63:4b:
                    1e:1e:2c:f7:cf:73:35:1a:01
                Exponent: 65537 (0x10001)
        X509v3 extensions:
            X509v3 Basic Constraints: 
                CA:FALSE
            X509v3 Subject Key Identifier: 
                A2:C2:D1:51:12:5F:60:36:1A:05:8E:31:32:D2:18:0F:71:89:11:EE
            X509v3 Authority Key Identifier: 
                keyid:90:24:7E:B6:07:14:7B:65:D1:6F:07:13:64:B1:ED:5C:FA:28:9B:5F
                DirName:/C=US/ST=Florida/L=Palm Beach Gardens/O=ZeroC, Inc./OU=Ice/CN=ZeroC Test CA/emailAddress=info@zeroc.com
                serial:80:82:1F:1B:F7:72:79:89

            X509v3 Subject Alternative Name: 
                DNS:client, IP Address:127.0.0.1
    Signature Algorithm: sha256WithRSAEncryption
        5c:9d:3c:aa:c6:09:50:59:5b:4f:05:20:26:4b:97:94:ff:d2:
        bf:3c:de:50:83:a9:94:2c:f2:76:26:6f:47:00:3c:89:f0:60:
        62:55:16:3a:92:70:a1:c9:65:dc:c3:7f:0a:ec:20:65:30:e0:
        77:da:95:b8:45:74:11:31:d3:f5:02:b6:e3:96:be:06:c3:36:
        c0:b6:b5:ba:55:0c:f1:60:0a:04:b0:ed:b6:e1:7c:fa:0e:ce:
        4f:4b:e7:bb:0c:08:7a:ff:02:d3:8c:b1:7c:58:2e:3c:4c:80:
        77:e3:12:8d:a2:e5:fe:86:78:0f:d4:4c:33:a4:f9:79:e8:c3:
        54:b7
-----BEGIN CERTIFICATE-----
MIIDmTCCAwKgAwIBAgIBATANBgkqhkiG9w0BAQsFADCBlzELMAkGA1UEBhMCVVMx
EDAOBgNVBAgTB0Zsb3JpZGExGzAZBgNVBAcTElBhbG0gQmVhY2ggR2FyZGVuczEU
MBIGA1UEChMLWmVyb0MsIEluYy4xDDAKBgNVBAsTA0ljZTEWMBQGA1UEAxMNWmVy
b0MgVGVzdCBDQTEdMBsGCSqGSIb3DQEJARYOaW5mb0B6ZXJvYy5jb20wHhcNMTEx
MDE5MTczNDQxWhcNMTYxMDE3MTczNDQxWjBzMQswCQYDVQQGEwJVUzEQMA4GA1UE
CBMHRmxvcmlkYTEUMBIGA1UEChMLWmVyb0MsIEluYy4xDDAKBgNVBAsTA0ljZTEd
MBsGCSqGSIb3DQEJARYOaW5mb0B6ZXJvYy5jb20xDzANBgNVBAMTBkNsaWVudDCB
nzANBgkqhkiG9w0BAQEFAAOBjQAwgYkCgYEA5vS1ZfEiFYHJRh8YTylPOmdOADSp
hG7Ijboq69NN+mEb45yUkrY5tccCa3RCYEr/h2KlfYeCzeWWQU/Oy7Nbdr4PLkpQ
bxCb4B/y5qmhhe6SNZjrjk/CMPcDvzVu8jKQb3FGpxAwTXQOdhIevWhWrwd6KvgW
Y0seHiz3z3M1GgECAwEAAaOCARYwggESMAkGA1UdEwQCMAAwHQYDVR0OBBYEFKLC
0VESX2A2GgWOMTLSGA9xiRHuMIHMBgNVHSMEgcQwgcGAFJAkfrYHFHtl0W8HE2Sx
7Vz6KJtfoYGdpIGaMIGXMQswCQYDVQQGEwJVUzEQMA4GA1UECBMHRmxvcmlkYTEb
MBkGA1UEBxMSUGFsbSBCZWFjaCBHYXJkZW5zMRQwEgYDVQQKEwtaZXJvQywgSW5j
LjEMMAoGA1UECxMDSWNlMRYwFAYDVQQDEw1aZXJvQyBUZXN0IENBMR0wGwYJKoZI
hvcNAQkBFg5pbmZvQHplcm9jLmNvbYIJAICCHxv3cnmJMBcGA1UdEQQQMA6CBmNs
aWVudIcEfwAAATANBgkqhkiG9w0BAQsFAAOBgQBcnTyqxglQWVtPBSAmS5eU/9K/
PN5Qg6mULPJ2Jm9HADyJ8GBiVRY6knChyWXcw38K7CBlMOB32pW4RXQRMdP1Arbj
lr4GwzbAtrW6VQzxYAoEsO224Xz6Ds5PS+e7DAh6/wLTjLF8WC48TIB34xKNouX+
hngP1EwzpPl56MNUtw==
-----END CERTIFICATE-----
