Certificate:
    Data:
        Version: 3 (0x2)
        Serial Number: 2 (0x2)
        Signature Algorithm: md5WithRSAEncryption
        Issuer: C=US, ST=Florida, L=Palm Beach Gardens, O=ZeroC, Inc., OU=Ice, CN=ZeroC Test CA/emailAddress=info@zeroc.com
        Validity
            Not Before: Sep 23 16:06:32 2008 GMT
            Not After : Sep 22 16:06:32 2013 GMT
        Subject: C=US, ST=Florida, O=ZeroC, Inc., OU=Ice/emailAddress=info@zeroc.com, CN=Client
        Subject Public Key Info:
            Public Key Algorithm: rsaEncryption
            RSA Public Key: (1024 bit)
                Modulus (1024 bit):
                    00:a9:a6:e5:52:df:93:3b:a3:ea:e2:10:53:78:80:
                    f7:eb:d3:0e:83:54:21:ed:b7:8e:6a:12:52:85:c0:
                    d7:51:b9:ab:e4:54:6c:8d:03:19:7d:c9:3e:b4:b4:
                    d6:15:dc:18:3c:16:7c:2a:f3:b8:30:5a:f8:06:6a:
                    40:09:64:20:ee:e8:c6:72:52:49:a2:a5:5c:a3:b6:
                    0e:b4:ec:4d:8d:4b:4c:4c:a5:f7:f3:b1:e6:e4:02:
                    05:7c:f4:50:e1:ec:2c:84:e1:fd:5a:0a:94:48:9f:
                    8e:21:54:06:5b:c2:b1:6a:e4:02:40:02:21:91:a4:
                    51:dd:c3:f8:41:c4:ff:bc:69
                Exponent: 65537 (0x10001)
        X509v3 extensions:
            X509v3 Basic Constraints: 
                CA:FALSE
            X509v3 Subject Key Identifier: 
                58:1A:56:54:F2:32:1E:7C:EF:B1:9E:F4:8C:C5:A7:7B:60:6F:22:E0
            X509v3 Authority Key Identifier: 
                keyid:86:65:22:33:1C:22:1E:8B:D6:4A:E0:75:FF:64:F7:21:04:B1:C1:81
                DirName:/C=US/ST=Florida/L=Palm Beach Gardens/O=ZeroC, Inc./OU=Ice/CN=ZeroC Test CA/emailAddress=info@zeroc.com
                serial:9D:F0:3A:44:48:FF:C1:37

            X509v3 Subject Alternative Name: 
                DNS:client, IP Address:127.0.0.1
    Signature Algorithm: md5WithRSAEncryption
        3f:bd:46:49:59:c2:66:7e:ad:47:ae:99:3f:3b:a1:ac:d1:25:
        18:e3:e9:ff:d8:92:b8:aa:c4:91:42:6f:76:90:ac:3e:30:22:
        f3:7f:02:e1:41:8f:97:5e:68:8e:1b:47:0e:ec:22:76:a8:ac:
        1a:aa:be:c9:59:83:8c:7c:f3:50:fb:57:c9:fb:0a:fb:5b:07:
        91:81:a7:31:59:df:dc:97:d1:6d:97:3d:35:14:f1:93:22:d4:
        ac:48:4c:0f:92:d0:7c:e0:68:98:67:03:49:a0:a8:54:f0:ba:
        89:21:e3:3d:88:e2:3c:ac:ee:9c:c7:ca:86:21:e7:ac:50:ff:
        49:b1
-----BEGIN CERTIFICATE-----
MIIDmTCCAwKgAwIBAgIBAjANBgkqhkiG9w0BAQQFADCBlzELMAkGA1UEBhMCVVMx
EDAOBgNVBAgTB0Zsb3JpZGExGzAZBgNVBAcTElBhbG0gQmVhY2ggR2FyZGVuczEU
MBIGA1UEChMLWmVyb0MsIEluYy4xDDAKBgNVBAsTA0ljZTEWMBQGA1UEAxMNWmVy
b0MgVGVzdCBDQTEdMBsGCSqGSIb3DQEJARYOaW5mb0B6ZXJvYy5jb20wHhcNMDgw
OTIzMTYwNjMyWhcNMTMwOTIyMTYwNjMyWjBzMQswCQYDVQQGEwJVUzEQMA4GA1UE
CBMHRmxvcmlkYTEUMBIGA1UEChMLWmVyb0MsIEluYy4xDDAKBgNVBAsTA0ljZTEd
MBsGCSqGSIb3DQEJARYOaW5mb0B6ZXJvYy5jb20xDzANBgNVBAMTBkNsaWVudDCB
nzANBgkqhkiG9w0BAQEFAAOBjQAwgYkCgYEAqablUt+TO6Pq4hBTeID369MOg1Qh
7beOahJShcDXUbmr5FRsjQMZfck+tLTWFdwYPBZ8KvO4MFr4BmpACWQg7ujGclJJ
oqVco7YOtOxNjUtMTKX387Hm5AIFfPRQ4ewshOH9WgqUSJ+OIVQGW8KxauQCQAIh
kaRR3cP4QcT/vGkCAwEAAaOCARYwggESMAkGA1UdEwQCMAAwHQYDVR0OBBYEFFga
VlTyMh5877Ge9IzFp3tgbyLgMIHMBgNVHSMEgcQwgcGAFIZlIjMcIh6L1krgdf9k
9yEEscGBoYGdpIGaMIGXMQswCQYDVQQGEwJVUzEQMA4GA1UECBMHRmxvcmlkYTEb
MBkGA1UEBxMSUGFsbSBCZWFjaCBHYXJkZW5zMRQwEgYDVQQKEwtaZXJvQywgSW5j
LjEMMAoGA1UECxMDSWNlMRYwFAYDVQQDEw1aZXJvQyBUZXN0IENBMR0wGwYJKoZI
hvcNAQkBFg5pbmZvQHplcm9jLmNvbYIJAJ3wOkRI/8E3MBcGA1UdEQQQMA6CBmNs
aWVudIcEfwAAATANBgkqhkiG9w0BAQQFAAOBgQA/vUZJWcJmfq1Hrpk/O6Gs0SUY
4+n/2JK4qsSRQm92kKw+MCLzfwLhQY+XXmiOG0cO7CJ2qKwaqr7JWYOMfPNQ+1fJ
+wr7WweRgacxWd/cl9Ftlz01FPGTItSsSEwPktB84GiYZwNJoKhU8LqJIeM9iOI8
rO6cx8qGIeesUP9JsQ==
-----END CERTIFICATE-----
