Certificate:
    Data:
        Version: 3 (0x2)
        Serial Number: 1 (0x1)
        Signature Algorithm: sha256WithRSAEncryption
        Issuer: C=US, ST=Florida, L=Palm Beach Gardens, O=ZeroC, Inc., OU=Ice, CN=ZeroC Test CA/emailAddress=info@zeroc.com
        Validity
            Not Before: Nov  8 02:31:08 2011 GMT
            Not After : Nov  6 02:31:08 2016 GMT
        Subject: C=US, ST=Florida, O=ZeroC, Inc., OU=Ice/emailAddress=info@zeroc.com, CN=Client
        Subject Public Key Info:
            Public Key Algorithm: rsaEncryption
                Public-Key: (1024 bit)
                Modulus:
                    00:ba:3c:54:a9:dc:5c:58:c1:9d:2f:c3:c1:f2:41:
                    b4:2a:a0:f8:d2:4f:69:69:50:07:80:0e:31:3a:9c:
                    39:67:a5:6b:88:25:ff:1e:1f:5c:7c:4f:bb:32:18:
                    54:11:e3:c9:c8:49:a0:85:b6:19:e5:6a:f5:1b:44:
                    66:67:23:e4:75:e1:15:66:c9:23:77:19:c7:d6:85:
                    1f:97:2d:7c:f4:0d:b4:cc:46:1a:78:4e:dd:88:7f:
                    d6:51:d4:fe:eb:b7:e0:70:5a:4e:ee:be:1d:ba:c1:
                    64:ba:57:74:63:47:44:01:01:2e:bf:c0:eb:3a:d6:
                    7c:fc:4c:a1:57:63:ed:ee:b7
                Exponent: 65537 (0x10001)
        X509v3 extensions:
            X509v3 Basic Constraints: 
                CA:FALSE
            X509v3 Subject Key Identifier: 
                5D:24:57:98:E9:F2:7C:3B:A1:90:E9:51:E6:8E:41:A8:88:66:94:8C
            X509v3 Authority Key Identifier: 
                keyid:DC:87:74:D2:7B:B2:0D:8F:CA:E4:43:1C:A4:01:40:76:6E:23:C8:41
                DirName:/C=US/ST=Florida/L=Palm Beach Gardens/O=ZeroC, Inc./OU=Ice/CN=ZeroC Test CA/emailAddress=info@zeroc.com
                serial:DC:8E:96:A0:13:88:1A:96

            X509v3 Subject Alternative Name: 
                DNS:client, IP Address:127.0.0.1
    Signature Algorithm: sha256WithRSAEncryption
        7e:71:87:6b:c2:97:1a:5b:f8:8c:85:6a:bb:61:f7:cd:06:b9:
        32:50:d6:19:8c:a9:80:18:17:d0:4a:44:8f:14:87:8e:d8:4b:
        bb:de:a5:1a:dd:19:df:18:13:e6:76:3b:8e:57:a3:51:fc:ad:
        32:e2:7f:96:89:50:94:12:37:4e:2d:f3:9a:42:60:d1:51:bf:
        00:cc:05:62:a1:fe:2d:39:73:52:31:f6:64:10:c5:f0:50:d7:
        d9:88:f9:e8:b6:0c:8d:e3:13:10:f9:35:5c:81:16:1b:90:ba:
        41:47:ef:90:e8:d5:c4:ff:bd:5a:63:1d:bf:c3:bc:55:88:bd:
        6e:99
-----BEGIN CERTIFICATE-----
MIIDmTCCAwKgAwIBAgIBATANBgkqhkiG9w0BAQsFADCBlzELMAkGA1UEBhMCVVMx
EDAOBgNVBAgTB0Zsb3JpZGExGzAZBgNVBAcTElBhbG0gQmVhY2ggR2FyZGVuczEU
MBIGA1UEChMLWmVyb0MsIEluYy4xDDAKBgNVBAsTA0ljZTEWMBQGA1UEAxMNWmVy
b0MgVGVzdCBDQTEdMBsGCSqGSIb3DQEJARYOaW5mb0B6ZXJvYy5jb20wHhcNMTEx
MTA4MDIzMTA4WhcNMTYxMTA2MDIzMTA4WjBzMQswCQYDVQQGEwJVUzEQMA4GA1UE
CBMHRmxvcmlkYTEUMBIGA1UEChMLWmVyb0MsIEluYy4xDDAKBgNVBAsTA0ljZTEd
MBsGCSqGSIb3DQEJARYOaW5mb0B6ZXJvYy5jb20xDzANBgNVBAMTBkNsaWVudDCB
nzANBgkqhkiG9w0BAQEFAAOBjQAwgYkCgYEAujxUqdxcWMGdL8PB8kG0KqD40k9p
aVAHgA4xOpw5Z6VriCX/Hh9cfE+7MhhUEePJyEmghbYZ5Wr1G0RmZyPkdeEVZskj
dxnH1oUfly189A20zEYaeE7diH/WUdT+67fgcFpO7r4dusFkuld0Y0dEAQEuv8Dr
OtZ8/EyhV2Pt7rcCAwEAAaOCARYwggESMAkGA1UdEwQCMAAwHQYDVR0OBBYEFF0k
V5jp8nw7oZDpUeaOQaiIZpSMMIHMBgNVHSMEgcQwgcGAFNyHdNJ7sg2PyuRDHKQB
QHZuI8hBoYGdpIGaMIGXMQswCQYDVQQGEwJVUzEQMA4GA1UECBMHRmxvcmlkYTEb
MBkGA1UEBxMSUGFsbSBCZWFjaCBHYXJkZW5zMRQwEgYDVQQKEwtaZXJvQywgSW5j
LjEMMAoGA1UECxMDSWNlMRYwFAYDVQQDEw1aZXJvQyBUZXN0IENBMR0wGwYJKoZI
hvcNAQkBFg5pbmZvQHplcm9jLmNvbYIJANyOlqATiBqWMBcGA1UdEQQQMA6CBmNs
aWVudIcEfwAAATANBgkqhkiG9w0BAQsFAAOBgQB+cYdrwpcaW/iMhWq7YffNBrky
UNYZjKmAGBfQSkSPFIeO2Eu73qUa3RnfGBPmdjuOV6NR/K0y4n+WiVCUEjdOLfOa
QmDRUb8AzAViof4tOXNSMfZkEMXwUNfZiPnotgyN4xMQ+TVcgRYbkLpBR++Q6NXE
/71aYx2/w7xViL1umQ==
-----END CERTIFICATE-----
