Certificate:
    Data:
        Version: 3 (0x2)
        Serial Number: 1 (0x1)
        Signature Algorithm: sha256WithRSAEncryption
        Issuer: C=US, ST=Florida, L=Palm Beach Gardens, O=ZeroC, Inc., OU=Ice, CN=ZeroC Test CA/emailAddress=info@zeroc.com
        Validity
            Not Before: Oct 19 17:34:42 2011 GMT
            Not After : Oct 17 17:34:42 2016 GMT
        Subject: C=US, ST=Florida, O=ZeroC, Inc., OU=Ice/emailAddress=info@zeroc.com, CN=Server
        Subject Public Key Info:
            Public Key Algorithm: dsaEncryption
                pub: 
                    00:8c:c2:8d:4e:61:f0:c9:21:e6:0e:7f:81:3c:ca:
                    1e:17:bf:9d:a6:ad:7d:a1:39:c3:b4:9f:1f:4b:cb:
                    3a:96:2e:1e:f1:7a:97:25:f2:9a:11:57:07:22:59:
                    92:c2:95:1d:7f:05:c8:f8:d9:43:b1:83:df:3c:5f:
                    d0:53:6d:26:f6:40:0e:08:cf:01:4f:7e:65:47:d4:
                    f4:2a:ce:7a:25:20:ea:d9:a4:5d:38:9f:85:1d:bf:
                    0b:38:b3:2d:ad:03:a9:cf:af:db:b8:d8:89:42:f7:
                    0b:9d:e4:c4:3d:8c:ce:94:62:06:e3:6c:e8:7d:9f:
                    9d:02:18:02:ef:ef:83:33:c0
                P:   
                    00:b1:8e:7f:69:a2:5f:66:e3:08:15:6c:93:e8:f2:
                    73:ef:b4:3e:c3:22:7f:10:74:ff:c7:54:f8:b4:f3:
                    5b:0d:03:d5:43:99:ff:dd:95:ab:4f:39:cd:db:db:
                    0c:0f:8e:53:74:c3:e6:0a:6a:e1:26:06:66:50:36:
                    4e:e5:55:47:f5:fb:03:75:ca:5d:8d:2a:5c:35:3f:
                    b3:44:f2:92:93:93:17:64:72:c0:c3:83:e2:a1:f4:
                    f8:c6:ab:48:fc:9b:b9:2e:f9:de:e7:1a:1a:dc:1f:
                    8c:28:1d:be:d4:14:75:d1:1b:36:3d:db:6c:12:2c:
                    9a:d9:d3:c5:34:4f:b9:43:a7
                Q:   
                    00:e6:25:fd:ca:9c:55:a8:01:65:95:21:85:2e:1b:
                    78:1d:39:f4:d7:29
                G:   
                    43:21:74:35:59:cc:f8:fc:dd:de:37:d1:97:ff:99:
                    55:75:fc:34:b5:f4:94:a8:94:05:f6:bd:43:1c:41:
                    a6:b6:91:d4:7f:5e:21:b2:2a:8c:cb:e5:13:e5:71:
                    0a:7f:8f:2a:88:a5:77:33:02:75:01:37:56:fa:b9:
                    b8:c3:c9:d5:36:44:64:82:f8:53:3f:62:96:14:1c:
                    4f:83:69:bb:a0:42:ef:72:f1:a4:7d:f0:34:9a:77:
                    85:bc:2b:4c:ec:c0:7f:8e:1e:23:ae:ca:aa:c9:0e:
                    ba:10:12:ec:44:90:a3:94:82:25:a3:e1:60:98:fb:
                    ef:ba:67:07:2f:de:49:b7
        X509v3 extensions:
            X509v3 Basic Constraints: 
                CA:FALSE
            X509v3 Subject Key Identifier: 
                34:80:E0:18:8C:1D:8A:AE:46:F6:E9:2E:B1:8A:57:98:CC:F3:6B:41
            X509v3 Authority Key Identifier: 
                keyid:90:24:7E:B6:07:14:7B:65:D1:6F:07:13:64:B1:ED:5C:FA:28:9B:5F
                DirName:/C=US/ST=Florida/L=Palm Beach Gardens/O=ZeroC, Inc./OU=Ice/CN=ZeroC Test CA/emailAddress=info@zeroc.com
                serial:80:82:1F:1B:F7:72:79:89

            X509v3 Subject Alternative Name: 
                DNS:server, IP Address:127.0.0.1
    Signature Algorithm: sha256WithRSAEncryption
        17:f9:7a:84:65:52:70:1b:e5:08:86:fc:c2:bc:0c:ab:30:ba:
        8f:76:1d:88:2e:28:59:d2:04:4f:21:99:63:33:b2:bb:20:1f:
        20:1c:1c:d8:63:e1:8e:90:03:66:96:82:4c:da:f3:73:0f:d4:
        a3:ad:20:c3:41:e7:4c:04:f5:ad:dd:7f:1c:58:88:73:c0:ac:
        4e:e4:67:90:92:69:fc:d8:d0:09:a6:b0:0c:27:e4:d4:1d:34:
        40:76:94:cd:2c:24:0e:66:e6:4b:3b:3d:cf:03:fe:f4:e1:f4:
        36:eb:2c:b3:fb:b7:34:04:e9:1e:b6:16:ed:7b:0f:b0:5f:dd:
        84:7c
-----BEGIN CERTIFICATE-----
MIIEsjCCBBugAwIBAgIBATANBgkqhkiG9w0BAQsFADCBlzELMAkGA1UEBhMCVVMx
EDAOBgNVBAgTB0Zsb3JpZGExGzAZBgNVBAcTElBhbG0gQmVhY2ggR2FyZGVuczEU
MBIGA1UEChMLWmVyb0MsIEluYy4xDDAKBgNVBAsTA0ljZTEWMBQGA1UEAxMNWmVy
b0MgVGVzdCBDQTEdMBsGCSqGSIb3DQEJARYOaW5mb0B6ZXJvYy5jb20wHhcNMTEx
MDE5MTczNDQyWhcNMTYxMDE3MTczNDQyWjBzMQswCQYDVQQGEwJVUzEQMA4GA1UE
CBMHRmxvcmlkYTEUMBIGA1UEChMLWmVyb0MsIEluYy4xDDAKBgNVBAsTA0ljZTEd
MBsGCSqGSIb3DQEJARYOaW5mb0B6ZXJvYy5jb20xDzANBgNVBAMTBlNlcnZlcjCC
AbcwggErBgcqhkjOOAQBMIIBHgKBgQCxjn9pol9m4wgVbJPo8nPvtD7DIn8QdP/H
VPi081sNA9VDmf/dlatPOc3b2wwPjlN0w+YKauEmBmZQNk7lVUf1+wN1yl2NKlw1
P7NE8pKTkxdkcsDDg+Kh9PjGq0j8m7ku+d7nGhrcH4woHb7UFHXRGzY922wSLJrZ
08U0T7lDpwIVAOYl/cqcVagBZZUhhS4beB059NcpAoGAQyF0NVnM+Pzd3jfRl/+Z
VXX8NLX0lKiUBfa9QxxBpraR1H9eIbIqjMvlE+VxCn+PKoildzMCdQE3Vvq5uMPJ
1TZEZIL4Uz9ilhQcT4Npu6BC73LxpH3wNJp3hbwrTOzAf44eI67KqskOuhAS7ESQ
o5SCJaPhYJj777pnBy/eSbcDgYUAAoGBAIzCjU5h8Mkh5g5/gTzKHhe/naatfaE5
w7SfH0vLOpYuHvF6lyXymhFXByJZksKVHX8FyPjZQ7GD3zxf0FNtJvZADgjPAU9+
ZUfU9CrOeiUg6tmkXTifhR2/CzizLa0Dqc+v27jYiUL3C53kxD2MzpRiBuNs6H2f
nQIYAu/vgzPAo4IBFjCCARIwCQYDVR0TBAIwADAdBgNVHQ4EFgQUNIDgGIwdiq5G
9ukusYpXmMzza0EwgcwGA1UdIwSBxDCBwYAUkCR+tgcUe2XRbwcTZLHtXPoom1+h
gZ2kgZowgZcxCzAJBgNVBAYTAlVTMRAwDgYDVQQIEwdGbG9yaWRhMRswGQYDVQQH
ExJQYWxtIEJlYWNoIEdhcmRlbnMxFDASBgNVBAoTC1plcm9DLCBJbmMuMQwwCgYD
VQQLEwNJY2UxFjAUBgNVBAMTDVplcm9DIFRlc3QgQ0ExHTAbBgkqhkiG9w0BCQEW
DmluZm9AemVyb2MuY29tggkAgIIfG/dyeYkwFwYDVR0RBBAwDoIGc2VydmVyhwR/
AAABMA0GCSqGSIb3DQEBCwUAA4GBABf5eoRlUnAb5QiG/MK8DKswuo92HYguKFnS
BE8hmWMzsrsgHyAcHNhj4Y6QA2aWgkza83MP1KOtIMNB50wE9a3dfxxYiHPArE7k
Z5CSafzY0AmmsAwn5NQdNEB2lM0sJA5m5ks7Pc8D/vTh9DbrLLP7tzQE6R62Fu17
D7Bf3YR8
-----END CERTIFICATE-----
