Certificate:
    Data:
        Version: 3 (0x2)
        Serial Number: 1 (0x1)
        Signature Algorithm: sha256WithRSAEncryption
        Issuer: C=US, ST=Florida, L=Palm Beach Gardens, O=ZeroC, Inc., OU=Ice, CN=ZeroC Test CA/emailAddress=info@zeroc.com
        Validity
            Not Before: Nov  8 02:31:10 2011 GMT
            Not After : Nov  6 02:31:10 2016 GMT
        Subject: C=US, ST=Florida, O=ZeroC, Inc., OU=Ice/emailAddress=info@zeroc.com, CN=Server
        Subject Public Key Info:
            Public Key Algorithm: dsaEncryption
                pub: 
                    00:88:cb:e1:f5:3a:87:36:b2:08:aa:31:fa:ef:59:
                    cd:24:02:ac:4a:cb:36:74:18:0b:5a:b0:15:98:52:
                    9d:00:b4:1d:c1:16:b6:d7:24:49:9a:58:f0:cf:01:
                    6f:bf:81:50:c6:32:e4:72:e6:95:8f:7c:19:48:c8:
                    b6:d4:cf:75:81:6e:cf:47:a7:95:b6:53:1b:fa:94:
                    70:69:a9:c7:42:83:db:48:61:0b:b2:57:f6:3f:f6:
                    b2:3e:2c:0f:3e:7c:2b:ea:f5:72:0b:05:cf:84:11:
                    5e:4c:51:08:13:96:d4:be:65:23:0b:af:2a:e2:bd:
                    16:3c:28:0c:78:18:50:9a:19
                P:   
                    00:91:30:32:5d:22:33:90:fb:ba:c4:cf:2d:06:9c:
                    d3:7c:90:40:8f:32:33:b6:53:72:c3:1f:5e:dc:12:
                    4f:55:09:1d:a4:95:02:9d:36:13:e7:bb:87:c3:ce:
                    b3:00:8f:c1:a7:d2:88:05:20:29:33:41:23:5a:36:
                    38:96:4b:2e:81:4d:61:70:4f:38:97:35:7e:91:7e:
                    82:a0:32:69:1f:b8:ce:48:c3:23:68:9a:4c:ec:0d:
                    da:82:b3:d6:46:ef:ee:da:7c:95:55:a6:f4:56:d4:
                    cb:6e:b7:eb:fe:d3:e8:f9:b9:81:0a:f3:8f:05:9c:
                    d9:89:a7:b3:91:22:82:fe:a7
                Q:   
                    00:ba:9b:8c:fb:61:69:64:6e:aa:08:40:6e:5c:38:
                    47:51:73:53:a3:c7
                G:   
                    00:91:07:a3:3e:c4:a0:c0:fa:56:05:2f:7b:16:8b:
                    24:25:c4:4d:c4:3b:58:24:e0:d9:e2:01:bd:0d:5b:
                    35:da:74:c9:81:b5:37:35:39:12:06:7e:7c:0d:0e:
                    69:70:81:b9:73:27:fa:bf:5c:df:9b:c5:b5:a8:7e:
                    f5:20:57:9b:80:44:8b:14:be:8e:92:a8:74:b1:aa:
                    1d:7b:e0:d3:45:1e:6c:54:2d:f2:39:de:bf:a6:75:
                    b8:d3:9a:78:52:75:99:fa:39:50:d3:4d:8c:ad:15:
                    9f:27:01:ca:7e:cc:b4:1e:18:68:17:71:21:8f:a6:
                    e6:63:7b:ee:34:64:1a:b6:49
        X509v3 extensions:
            X509v3 Basic Constraints: 
                CA:FALSE
            X509v3 Subject Key Identifier: 
                11:FA:6A:A1:D2:5E:88:B5:8A:81:07:F4:BC:75:6A:FB:5E:E8:A0:50
            X509v3 Authority Key Identifier: 
                keyid:DC:87:74:D2:7B:B2:0D:8F:CA:E4:43:1C:A4:01:40:76:6E:23:C8:41
                DirName:/C=US/ST=Florida/L=Palm Beach Gardens/O=ZeroC, Inc./OU=Ice/CN=ZeroC Test CA/emailAddress=info@zeroc.com
                serial:DC:8E:96:A0:13:88:1A:96

            X509v3 Subject Alternative Name: 
                DNS:server, IP Address:127.0.0.1
    Signature Algorithm: sha256WithRSAEncryption
        6b:90:57:ed:18:0d:95:a2:ff:6a:a7:35:08:72:be:ca:11:0c:
        f0:2a:f4:21:b0:ec:55:6c:b3:1b:1c:b8:95:05:13:56:31:53:
        41:2f:c6:e6:f3:8c:7c:62:2c:e6:a9:e0:da:f3:0f:c3:7e:a8:
        a3:67:10:79:14:3d:51:84:ae:1f:5a:3a:5c:8a:c8:ad:8a:01:
        f8:f7:67:70:68:f1:a0:7c:f8:92:f5:c1:49:7a:2e:fa:bb:39:
        a8:06:6c:2a:41:9f:13:df:06:48:ef:dc:e9:5c:bb:66:af:ab:
        db:e7:db:60:f3:4a:2b:94:a5:cc:83:c6:3a:17:e3:ab:df:4d:
        57:c9
-----BEGIN CERTIFICATE-----
MIIEszCCBBygAwIBAgIBATANBgkqhkiG9w0BAQsFADCBlzELMAkGA1UEBhMCVVMx
EDAOBgNVBAgTB0Zsb3JpZGExGzAZBgNVBAcTElBhbG0gQmVhY2ggR2FyZGVuczEU
MBIGA1UEChMLWmVyb0MsIEluYy4xDDAKBgNVBAsTA0ljZTEWMBQGA1UEAxMNWmVy
b0MgVGVzdCBDQTEdMBsGCSqGSIb3DQEJARYOaW5mb0B6ZXJvYy5jb20wHhcNMTEx
MTA4MDIzMTEwWhcNMTYxMTA2MDIzMTEwWjBzMQswCQYDVQQGEwJVUzEQMA4GA1UE
CBMHRmxvcmlkYTEUMBIGA1UEChMLWmVyb0MsIEluYy4xDDAKBgNVBAsTA0ljZTEd
MBsGCSqGSIb3DQEJARYOaW5mb0B6ZXJvYy5jb20xDzANBgNVBAMTBlNlcnZlcjCC
AbgwggEsBgcqhkjOOAQBMIIBHwKBgQCRMDJdIjOQ+7rEzy0GnNN8kECPMjO2U3LD
H17cEk9VCR2klQKdNhPnu4fDzrMAj8Gn0ogFICkzQSNaNjiWSy6BTWFwTziXNX6R
foKgMmkfuM5IwyNomkzsDdqCs9ZG7+7afJVVpvRW1Mtut+v+0+j5uYEK848FnNmJ
p7ORIoL+pwIVALqbjPthaWRuqghAblw4R1FzU6PHAoGBAJEHoz7EoMD6VgUvexaL
JCXETcQ7WCTg2eIBvQ1bNdp0yYG1NzU5EgZ+fA0OaXCBuXMn+r9c35vFtah+9SBX
m4BEixS+jpKodLGqHXvg00UebFQt8jnev6Z1uNOaeFJ1mfo5UNNNjK0VnycByn7M
tB4YaBdxIY+m5mN77jRkGrZJA4GFAAKBgQCIy+H1Ooc2sgiqMfrvWc0kAqxKyzZ0
GAtasBWYUp0AtB3BFrbXJEmaWPDPAW+/gVDGMuRy5pWPfBlIyLbUz3WBbs9Hp5W2
Uxv6lHBpqcdCg9tIYQuyV/Y/9rI+LA8+fCvq9XILBc+EEV5MUQgTltS+ZSMLryri
vRY8KAx4GFCaGaOCARYwggESMAkGA1UdEwQCMAAwHQYDVR0OBBYEFBH6aqHSXoi1
ioEH9Lx1avte6KBQMIHMBgNVHSMEgcQwgcGAFNyHdNJ7sg2PyuRDHKQBQHZuI8hB
oYGdpIGaMIGXMQswCQYDVQQGEwJVUzEQMA4GA1UECBMHRmxvcmlkYTEbMBkGA1UE
BxMSUGFsbSBCZWFjaCBHYXJkZW5zMRQwEgYDVQQKEwtaZXJvQywgSW5jLjEMMAoG
A1UECxMDSWNlMRYwFAYDVQQDEw1aZXJvQyBUZXN0IENBMR0wGwYJKoZIhvcNAQkB
Fg5pbmZvQHplcm9jLmNvbYIJANyOlqATiBqWMBcGA1UdEQQQMA6CBnNlcnZlcocE
fwAAATANBgkqhkiG9w0BAQsFAAOBgQBrkFftGA2Vov9qpzUIcr7KEQzwKvQhsOxV
bLMbHLiVBRNWMVNBL8bm84x8YizmqeDa8w/DfqijZxB5FD1RhK4fWjpcisitigH4
92dwaPGgfPiS9cFJei76uzmoBmwqQZ8T3wZI79zpXLtmr6vb59tg80orlKXMg8Y6
F+Or301XyQ==
-----END CERTIFICATE-----
