Certificate:
    Data:
        Version: 3 (0x2)
        Serial Number: 1 (0x1)
        Signature Algorithm: md5WithRSAEncryption
        Issuer: C=US, ST=Florida, L=Palm Beach Gardens, O=ZeroC, Inc., OU=Ice, CN=ZeroC Test CA/emailAddress=info@zeroc.com
        Validity
            Not Before: Sep 23 16:06:37 2008 GMT
            Not After : Sep 22 16:06:37 2013 GMT
        Subject: C=US, ST=Florida, O=ZeroC, Inc., OU=Ice/emailAddress=info@zeroc.com, CN=Server
        Subject Public Key Info:
            Public Key Algorithm: dsaEncryption
            DSA Public Key:
                pub: 
                    00:82:7c:37:82:db:fc:4a:74:cc:b2:06:e1:62:10:
                    43:1d:04:6e:b5:6b:32:c5:dc:e2:25:00:ea:3f:5c:
                    5c:3e:f0:ff:13:09:7b:fd:0e:af:d6:c2:f9:a2:7e:
                    25:2c:83:f7:54:cd:fc:0d:75:0b:d7:25:d1:4f:c3:
                    0f:2d:a0:3b:33:7f:f4:3e:e0:ce:44:3f:be:2e:a5:
                    b0:ac:2a:9c:15:33:40:7d:65:26:22:3d:93:02:5e:
                    57:2e:17:51:d4:cf:ee:c9:4e:38:4c:3d:84:03:20:
                    f2:b1:31:a4:db:42:e0:f8:76:7b:11:30:26:0b:0a:
                    ac:79:59:c6:3e:3b:4e:28:dd
                P:   
                    00:95:a9:29:49:5b:52:6d:dc:75:55:b3:b2:c5:50:
                    c9:00:53:2f:8f:cf:74:b9:9a:7b:8d:53:2c:bf:62:
                    0b:9a:bc:92:9e:d5:1a:6d:7b:02:60:bd:52:3e:b7:
                    9a:86:50:5f:a1:78:28:fa:5b:f7:12:7c:30:79:ae:
                    5c:33:ef:6e:32:5a:45:16:f0:eb:fd:c7:4a:38:c1:
                    d5:8d:e2:18:24:7c:cd:65:49:f2:07:fb:53:c8:d5:
                    60:1f:3d:9a:8e:76:f1:67:9f:07:2b:97:5e:06:9b:
                    5c:34:19:05:a1:ca:42:7f:f6:eb:1f:df:ba:f6:f7:
                    85:fc:c4:82:4e:8f:67:55:e5
                Q:   
                    00:b9:ae:d5:c1:17:6b:dc:53:22:18:0e:31:c6:34:
                    cf:84:c3:54:e5:2b
                G:   
                    0c:ea:4e:b1:d7:14:47:b7:3b:ce:89:f8:65:4e:c7:
                    7b:32:10:3e:0e:fd:db:27:12:6e:a6:92:95:28:63:
                    5a:c7:f6:a3:34:9c:67:e3:cd:09:83:96:6c:b9:a4:
                    d2:1e:37:6e:d6:b2:04:b2:8c:13:39:42:e2:5b:88:
                    8d:ea:a2:98:2b:1d:9d:1c:1b:0f:21:0d:3c:83:2f:
                    d6:c8:33:70:c1:6c:df:90:ed:c4:b0:2b:b3:5e:d5:
                    21:71:b1:c2:aa:1c:bf:66:e9:3a:1a:ba:13:23:ee:
                    78:ef:bf:b9:26:ef:b3:b8:b2:a2:8a:88:82:db:30:
                    e1:d9:cf:86:24:20:61:13
        X509v3 extensions:
            X509v3 Basic Constraints: 
                CA:FALSE
            X509v3 Subject Key Identifier: 
                5B:85:4E:E6:14:7D:53:CA:B3:53:25:82:3E:50:88:75:26:CA:C1:29
            X509v3 Authority Key Identifier: 
                keyid:86:65:22:33:1C:22:1E:8B:D6:4A:E0:75:FF:64:F7:21:04:B1:C1:81
                DirName:/C=US/ST=Florida/L=Palm Beach Gardens/O=ZeroC, Inc./OU=Ice/CN=ZeroC Test CA/emailAddress=info@zeroc.com
                serial:9D:F0:3A:44:48:FF:C1:37

            X509v3 Subject Alternative Name: 
                DNS:server, IP Address:127.0.0.1
    Signature Algorithm: md5WithRSAEncryption
        56:de:65:e9:76:6f:12:82:ef:d7:76:d7:6e:5a:6f:08:f2:d2:
        b5:12:7e:46:0f:66:7b:ca:72:1c:79:35:9d:71:e1:02:f7:f6:
        ce:05:31:14:c2:3e:26:73:e1:9e:ea:a3:97:e9:3b:08:54:03:
        ad:ab:e0:6a:bf:ff:dd:46:a8:03:da:f3:ee:ae:4b:b0:fa:2f:
        89:f7:2b:ea:a8:82:51:2b:04:58:95:88:8e:20:93:7c:b2:73:
        ce:14:3f:47:e3:06:ed:59:b0:30:77:e3:09:f4:6f:28:ca:da:
        84:b9:15:98:9a:0f:1a:2a:fd:bb:83:df:e4:18:50:9e:37:e8:
        f7:4d
-----BEGIN CERTIFICATE-----
MIIEsjCCBBugAwIBAgIBATANBgkqhkiG9w0BAQQFADCBlzELMAkGA1UEBhMCVVMx
EDAOBgNVBAgTB0Zsb3JpZGExGzAZBgNVBAcTElBhbG0gQmVhY2ggR2FyZGVuczEU
MBIGA1UEChMLWmVyb0MsIEluYy4xDDAKBgNVBAsTA0ljZTEWMBQGA1UEAxMNWmVy
b0MgVGVzdCBDQTEdMBsGCSqGSIb3DQEJARYOaW5mb0B6ZXJvYy5jb20wHhcNMDgw
OTIzMTYwNjM3WhcNMTMwOTIyMTYwNjM3WjBzMQswCQYDVQQGEwJVUzEQMA4GA1UE
CBMHRmxvcmlkYTEUMBIGA1UEChMLWmVyb0MsIEluYy4xDDAKBgNVBAsTA0ljZTEd
MBsGCSqGSIb3DQEJARYOaW5mb0B6ZXJvYy5jb20xDzANBgNVBAMTBlNlcnZlcjCC
AbcwggErBgcqhkjOOAQBMIIBHgKBgQCVqSlJW1Jt3HVVs7LFUMkAUy+Pz3S5mnuN
Uyy/YguavJKe1RptewJgvVI+t5qGUF+heCj6W/cSfDB5rlwz724yWkUW8Ov9x0o4
wdWN4hgkfM1lSfIH+1PI1WAfPZqOdvFnnwcrl14Gm1w0GQWhykJ/9usf37r294X8
xIJOj2dV5QIVALmu1cEXa9xTIhgOMcY0z4TDVOUrAoGADOpOsdcUR7c7zon4ZU7H
ezIQPg792ycSbqaSlShjWsf2ozScZ+PNCYOWbLmk0h43btayBLKMEzlC4luIjeqi
mCsdnRwbDyENPIMv1sgzcMFs35DtxLArs17VIXGxwqocv2bpOhq6EyPueO+/uSbv
s7iyooqIgtsw4dnPhiQgYRMDgYUAAoGBAIJ8N4Lb/Ep0zLIG4WIQQx0EbrVrMsXc
4iUA6j9cXD7w/xMJe/0Or9bC+aJ+JSyD91TN/A11C9cl0U/DDy2gOzN/9D7gzkQ/
vi6lsKwqnBUzQH1lJiI9kwJeVy4XUdTP7slOOEw9hAMg8rExpNtC4Ph2exEwJgsK
rHlZxj47Tijdo4IBFjCCARIwCQYDVR0TBAIwADAdBgNVHQ4EFgQUW4VO5hR9U8qz
UyWCPlCIdSbKwSkwgcwGA1UdIwSBxDCBwYAUhmUiMxwiHovWSuB1/2T3IQSxwYGh
gZ2kgZowgZcxCzAJBgNVBAYTAlVTMRAwDgYDVQQIEwdGbG9yaWRhMRswGQYDVQQH
ExJQYWxtIEJlYWNoIEdhcmRlbnMxFDASBgNVBAoTC1plcm9DLCBJbmMuMQwwCgYD
VQQLEwNJY2UxFjAUBgNVBAMTDVplcm9DIFRlc3QgQ0ExHTAbBgkqhkiG9w0BCQEW
DmluZm9AemVyb2MuY29tggkAnfA6REj/wTcwFwYDVR0RBBAwDoIGc2VydmVyhwR/
AAABMA0GCSqGSIb3DQEBBAUAA4GBAFbeZel2bxKC79d2125abwjy0rUSfkYPZnvK
chx5NZ1x4QL39s4FMRTCPiZz4Z7qo5fpOwhUA62r4Gq//91GqAPa8+6uS7D6L4n3
K+qoglErBFiViI4gk3yyc84UP0fjBu1ZsDB34wn0byjK2oS5FZiaDxoq/buD3+QY
UJ436PdN
-----END CERTIFICATE-----
