Certificate:
    Data:
        Version: 3 (0x2)
        Serial Number: 1 (0x1)
        Signature Algorithm: md5WithRSAEncryption
        Issuer: C=US, ST=Florida, L=Palm Beach Gardens, O=ZeroC, Inc., OU=Ice, CN=ZeroC Test CA/emailAddress=info@zeroc.com
        Validity
            Not Before: Sep 23 16:06:32 2008 GMT
            Not After : Sep 22 16:06:32 2013 GMT
        Subject: C=US, ST=Florida, O=ZeroC, Inc., OU=Ice/emailAddress=info@zeroc.com, CN=Server
        Subject Public Key Info:
            Public Key Algorithm: rsaEncryption
            RSA Public Key: (1024 bit)
                Modulus (1024 bit):
                    00:b8:e5:85:3b:de:8a:ce:55:c9:df:96:e6:1f:0f:
                    66:ca:39:04:93:3b:c4:88:51:6c:ba:57:f8:2e:15:
                    5e:d8:b3:46:0c:d9:34:d2:42:4c:43:6c:d1:69:26:
                    87:4b:f9:55:74:36:6c:53:cf:2b:74:71:34:8d:62:
                    67:13:ca:22:1d:4e:4b:38:31:83:73:d9:f9:34:4d:
                    32:3f:4e:f1:bc:b7:8e:ad:77:13:07:40:ee:9f:b2:
                    be:73:f7:cf:08:41:2d:2a:3e:6d:c2:f7:a3:d3:92:
                    1b:17:3f:1b:41:4d:3d:01:b2:3b:78:1f:85:69:c1:
                    57:06:e7:32:d1:22:c8:de:c9
                Exponent: 65537 (0x10001)
        X509v3 extensions:
            X509v3 Basic Constraints: 
                CA:FALSE
            X509v3 Subject Key Identifier: 
                B1:71:77:FA:60:4D:8C:F1:74:4A:61:6D:17:1A:89:23:86:C8:89:23
            X509v3 Authority Key Identifier: 
                keyid:86:65:22:33:1C:22:1E:8B:D6:4A:E0:75:FF:64:F7:21:04:B1:C1:81
                DirName:/C=US/ST=Florida/L=Palm Beach Gardens/O=ZeroC, Inc./OU=Ice/CN=ZeroC Test CA/emailAddress=info@zeroc.com
                serial:9D:F0:3A:44:48:FF:C1:37

            X509v3 Subject Alternative Name: 
                DNS:server, IP Address:127.0.0.1
    Signature Algorithm: md5WithRSAEncryption
        21:52:35:94:b8:f9:42:e6:af:39:b0:c7:d3:6f:42:da:bf:e9:
        c9:ed:19:04:01:59:d8:90:93:2e:58:59:22:e9:60:d5:a5:1b:
        c4:b0:7c:52:b4:10:99:4e:47:5d:90:db:a5:03:b3:92:7c:95:
        c9:c4:b5:e5:ca:ba:3d:28:1b:da:21:3f:7a:ea:57:1b:39:a0:
        35:79:97:09:03:da:67:4e:f0:4a:3b:dc:98:e3:35:a5:c2:6c:
        b2:b3:77:fb:be:fd:a1:d7:33:ae:77:4c:ff:6d:9c:7f:ec:58:
        29:5c:0c:88:d6:61:a7:6d:3b:85:c9:37:49:c4:fb:ff:3f:44:
        e6:93
-----BEGIN CERTIFICATE-----
MIIDmTCCAwKgAwIBAgIBATANBgkqhkiG9w0BAQQFADCBlzELMAkGA1UEBhMCVVMx
EDAOBgNVBAgTB0Zsb3JpZGExGzAZBgNVBAcTElBhbG0gQmVhY2ggR2FyZGVuczEU
MBIGA1UEChMLWmVyb0MsIEluYy4xDDAKBgNVBAsTA0ljZTEWMBQGA1UEAxMNWmVy
b0MgVGVzdCBDQTEdMBsGCSqGSIb3DQEJARYOaW5mb0B6ZXJvYy5jb20wHhcNMDgw
OTIzMTYwNjMyWhcNMTMwOTIyMTYwNjMyWjBzMQswCQYDVQQGEwJVUzEQMA4GA1UE
CBMHRmxvcmlkYTEUMBIGA1UEChMLWmVyb0MsIEluYy4xDDAKBgNVBAsTA0ljZTEd
MBsGCSqGSIb3DQEJARYOaW5mb0B6ZXJvYy5jb20xDzANBgNVBAMTBlNlcnZlcjCB
nzANBgkqhkiG9w0BAQEFAAOBjQAwgYkCgYEAuOWFO96KzlXJ35bmHw9myjkEkzvE
iFFsulf4LhVe2LNGDNk00kJMQ2zRaSaHS/lVdDZsU88rdHE0jWJnE8oiHU5LODGD
c9n5NE0yP07xvLeOrXcTB0Dun7K+c/fPCEEtKj5twvej05IbFz8bQU09AbI7eB+F
acFXBucy0SLI3skCAwEAAaOCARYwggESMAkGA1UdEwQCMAAwHQYDVR0OBBYEFLFx
d/pgTYzxdEphbRcaiSOGyIkjMIHMBgNVHSMEgcQwgcGAFIZlIjMcIh6L1krgdf9k
9yEEscGBoYGdpIGaMIGXMQswCQYDVQQGEwJVUzEQMA4GA1UECBMHRmxvcmlkYTEb
MBkGA1UEBxMSUGFsbSBCZWFjaCBHYXJkZW5zMRQwEgYDVQQKEwtaZXJvQywgSW5j
LjEMMAoGA1UECxMDSWNlMRYwFAYDVQQDEw1aZXJvQyBUZXN0IENBMR0wGwYJKoZI
hvcNAQkBFg5pbmZvQHplcm9jLmNvbYIJAJ3wOkRI/8E3MBcGA1UdEQQQMA6CBnNl
cnZlcocEfwAAATANBgkqhkiG9w0BAQQFAAOBgQAhUjWUuPlC5q85sMfTb0Lav+nJ
7RkEAVnYkJMuWFki6WDVpRvEsHxStBCZTkddkNulA7OSfJXJxLXlyro9KBvaIT96
6lcbOaA1eZcJA9pnTvBKO9yY4zWlwmyys3f7vv2h1zOud0z/bZx/7FgpXAyI1mGn
bTuFyTdJxPv/P0Tmkw==
-----END CERTIFICATE-----
