Certificate:
    Data:
        Version: 3 (0x2)
        Serial Number: 1 (0x1)
        Signature Algorithm: sha256WithRSAEncryption
        Issuer: C=US, ST=Florida, L=Palm Beach Gardens, O=ZeroC, Inc., OU=Ice, CN=ZeroC Test CA/emailAddress=info@zeroc.com
        Validity
            Not Before: Oct 19 17:34:41 2011 GMT
            Not After : Oct 17 17:34:41 2016 GMT
        Subject: C=US, ST=Florida, O=ZeroC, Inc., OU=Ice/emailAddress=info@zeroc.com, CN=Server
        Subject Public Key Info:
            Public Key Algorithm: rsaEncryption
                Public-Key: (1024 bit)
                Modulus:
                    00:c5:93:d2:54:c7:5d:7e:1c:cf:ac:4d:5c:06:8a:
                    0a:37:cc:93:77:df:46:50:fa:3f:91:9c:3d:43:92:
                    36:e1:bf:f9:e3:d0:35:70:32:fc:eb:04:24:04:a5:
                    79:d7:e3:70:80:e5:0d:28:33:b5:3a:db:d2:ba:47:
                    be:cc:e3:2d:64:b1:e4:db:2e:22:cc:87:d7:cf:c9:
                    21:a3:a6:10:5b:61:79:ea:3f:d6:d3:bf:f7:ad:31:
                    d9:a3:8f:87:47:ff:ea:aa:f2:81:c9:26:22:53:31:
                    96:63:3f:9e:69:2d:50:73:9c:ba:c4:be:7a:6f:58:
                    09:39:b7:bb:4f:c9:e1:41:7b
                Exponent: 65537 (0x10001)
        X509v3 extensions:
            X509v3 Basic Constraints: 
                CA:FALSE
            X509v3 Subject Key Identifier: 
                BE:4B:72:01:A6:CA:29:EE:29:00:34:B1:F6:CE:3F:B6:8B:E7:3B:56
            X509v3 Authority Key Identifier: 
                keyid:90:24:7E:B6:07:14:7B:65:D1:6F:07:13:64:B1:ED:5C:FA:28:9B:5F
                DirName:/C=US/ST=Florida/L=Palm Beach Gardens/O=ZeroC, Inc./OU=Ice/CN=ZeroC Test CA/emailAddress=info@zeroc.com
                serial:80:82:1F:1B:F7:72:79:89

            X509v3 Subject Alternative Name: 
                DNS:server, IP Address:127.0.0.1
    Signature Algorithm: sha256WithRSAEncryption
        7e:35:1b:7d:95:c0:2f:e4:c4:ea:79:e1:6f:2e:ca:5f:2b:7f:
        07:2e:00:2f:19:32:ca:bc:eb:18:22:40:9b:56:4c:6a:f8:e2:
        c6:d3:76:bb:5b:29:4a:69:36:5b:a5:a9:e4:95:70:4c:7c:1c:
        c5:c8:d5:90:ef:1c:17:b7:f1:f4:6d:ff:48:d0:9f:b3:e4:29:
        b1:3b:5a:10:8a:d2:4b:2e:d6:25:3a:34:f8:44:e0:4e:da:40:
        70:30:8b:33:4e:74:9b:80:51:0e:e4:77:27:8e:98:c2:96:12:
        8e:e2:a9:50:96:34:57:13:8f:b9:cc:cc:5a:97:cc:a7:4d:44:
        d5:e7
-----BEGIN CERTIFICATE-----
MIIDmTCCAwKgAwIBAgIBATANBgkqhkiG9w0BAQsFADCBlzELMAkGA1UEBhMCVVMx
EDAOBgNVBAgTB0Zsb3JpZGExGzAZBgNVBAcTElBhbG0gQmVhY2ggR2FyZGVuczEU
MBIGA1UEChMLWmVyb0MsIEluYy4xDDAKBgNVBAsTA0ljZTEWMBQGA1UEAxMNWmVy
b0MgVGVzdCBDQTEdMBsGCSqGSIb3DQEJARYOaW5mb0B6ZXJvYy5jb20wHhcNMTEx
MDE5MTczNDQxWhcNMTYxMDE3MTczNDQxWjBzMQswCQYDVQQGEwJVUzEQMA4GA1UE
CBMHRmxvcmlkYTEUMBIGA1UEChMLWmVyb0MsIEluYy4xDDAKBgNVBAsTA0ljZTEd
MBsGCSqGSIb3DQEJARYOaW5mb0B6ZXJvYy5jb20xDzANBgNVBAMTBlNlcnZlcjCB
nzANBgkqhkiG9w0BAQEFAAOBjQAwgYkCgYEAxZPSVMddfhzPrE1cBooKN8yTd99G
UPo/kZw9Q5I24b/549A1cDL86wQkBKV51+NwgOUNKDO1OtvSuke+zOMtZLHk2y4i
zIfXz8kho6YQW2F56j/W07/3rTHZo4+HR//qqvKBySYiUzGWYz+eaS1Qc5y6xL56
b1gJObe7T8nhQXsCAwEAAaOCARYwggESMAkGA1UdEwQCMAAwHQYDVR0OBBYEFL5L
cgGmyinuKQA0sfbOP7aL5ztWMIHMBgNVHSMEgcQwgcGAFJAkfrYHFHtl0W8HE2Sx
7Vz6KJtfoYGdpIGaMIGXMQswCQYDVQQGEwJVUzEQMA4GA1UECBMHRmxvcmlkYTEb
MBkGA1UEBxMSUGFsbSBCZWFjaCBHYXJkZW5zMRQwEgYDVQQKEwtaZXJvQywgSW5j
LjEMMAoGA1UECxMDSWNlMRYwFAYDVQQDEw1aZXJvQyBUZXN0IENBMR0wGwYJKoZI
hvcNAQkBFg5pbmZvQHplcm9jLmNvbYIJAICCHxv3cnmJMBcGA1UdEQQQMA6CBnNl
cnZlcocEfwAAATANBgkqhkiG9w0BAQsFAAOBgQB+NRt9lcAv5MTqeeFvLspfK38H
LgAvGTLKvOsYIkCbVkxq+OLG03a7WylKaTZbpanklXBMfBzFyNWQ7xwXt/H0bf9I
0J+z5CmxO1oQitJLLtYlOjT4ROBO2kBwMIszTnSbgFEO5HcnjpjClhKO4qlQljRX
E4+5zMxal8ynTUTV5w==
-----END CERTIFICATE-----
