Certificate:
    Data:
        Version: 3 (0x2)
        Serial Number: 1 (0x1)
        Signature Algorithm: sha256WithRSAEncryption
        Issuer: C=US, ST=Florida, L=Palm Beach Gardens, O=ZeroC, Inc., OU=Ice, CN=ZeroC Test CA/emailAddress=info@zeroc.com
        Validity
            Not Before: Nov  8 02:31:08 2011 GMT
            Not After : Nov  6 02:31:08 2016 GMT
        Subject: C=US, ST=Florida, O=ZeroC, Inc., OU=Ice/emailAddress=info@zeroc.com, CN=Server
        Subject Public Key Info:
            Public Key Algorithm: rsaEncryption
                Public-Key: (1024 bit)
                Modulus:
                    00:b8:f1:75:8e:59:fe:0f:86:8c:68:cf:15:50:1d:
                    3e:12:a5:0c:c6:64:4b:4a:08:c9:c3:3c:47:c2:c8:
                    8b:35:8b:f6:bf:23:04:bf:af:90:c6:82:61:70:90:
                    2c:6f:1a:e9:a4:be:63:30:af:bd:f4:f8:2c:a4:af:
                    fe:e0:28:a1:2b:25:5f:22:d3:a0:15:c1:f5:a0:a7:
                    7c:98:10:14:15:54:91:39:52:2a:26:ed:6e:0a:af:
                    37:b8:09:fa:46:8b:80:8e:38:00:2a:e2:fe:53:70:
                    f8:d6:81:60:02:08:31:66:54:53:71:0b:27:9b:8e:
                    fa:6c:11:7a:b5:ba:ac:5f:ff
                Exponent: 65537 (0x10001)
        X509v3 extensions:
            X509v3 Basic Constraints: 
                CA:FALSE
            X509v3 Subject Key Identifier: 
                1F:32:F4:BB:A4:4B:43:D5:37:38:D3:CF:65:60:9B:57:A8:F3:8E:AD
            X509v3 Authority Key Identifier: 
                keyid:DC:87:74:D2:7B:B2:0D:8F:CA:E4:43:1C:A4:01:40:76:6E:23:C8:41
                DirName:/C=US/ST=Florida/L=Palm Beach Gardens/O=ZeroC, Inc./OU=Ice/CN=ZeroC Test CA/emailAddress=info@zeroc.com
                serial:DC:8E:96:A0:13:88:1A:96

            X509v3 Subject Alternative Name: 
                DNS:server, IP Address:127.0.0.1
    Signature Algorithm: sha256WithRSAEncryption
        c8:07:ce:0d:d4:61:bc:82:9d:6b:b9:e6:c4:67:fa:87:a9:e5:
        5e:2b:95:36:d0:28:52:89:c8:66:4f:f9:0d:0e:59:eb:c8:8f:
        b0:b6:a0:df:8c:35:1e:d5:f4:59:a0:20:30:af:7b:cf:a7:81:
        fb:53:b1:44:21:1c:f4:4c:01:a4:36:81:87:0e:b1:df:78:85:
        85:e1:cf:e2:1b:a6:45:09:51:3c:84:6d:9b:90:68:63:f6:e8:
        db:be:cd:73:5c:59:8c:22:1a:d3:d3:f2:80:24:93:4e:62:42:
        fc:63:13:39:88:ff:40:77:da:d5:17:95:29:93:f2:2b:b2:e7:
        f7:e5
-----BEGIN CERTIFICATE-----
MIIDmTCCAwKgAwIBAgIBATANBgkqhkiG9w0BAQsFADCBlzELMAkGA1UEBhMCVVMx
EDAOBgNVBAgTB0Zsb3JpZGExGzAZBgNVBAcTElBhbG0gQmVhY2ggR2FyZGVuczEU
MBIGA1UEChMLWmVyb0MsIEluYy4xDDAKBgNVBAsTA0ljZTEWMBQGA1UEAxMNWmVy
b0MgVGVzdCBDQTEdMBsGCSqGSIb3DQEJARYOaW5mb0B6ZXJvYy5jb20wHhcNMTEx
MTA4MDIzMTA4WhcNMTYxMTA2MDIzMTA4WjBzMQswCQYDVQQGEwJVUzEQMA4GA1UE
CBMHRmxvcmlkYTEUMBIGA1UEChMLWmVyb0MsIEluYy4xDDAKBgNVBAsTA0ljZTEd
MBsGCSqGSIb3DQEJARYOaW5mb0B6ZXJvYy5jb20xDzANBgNVBAMTBlNlcnZlcjCB
nzANBgkqhkiG9w0BAQEFAAOBjQAwgYkCgYEAuPF1jln+D4aMaM8VUB0+EqUMxmRL
SgjJwzxHwsiLNYv2vyMEv6+QxoJhcJAsbxrppL5jMK+99PgspK/+4CihKyVfItOg
FcH1oKd8mBAUFVSROVIqJu1uCq83uAn6RouAjjgAKuL+U3D41oFgAggxZlRTcQsn
m476bBF6tbqsX/8CAwEAAaOCARYwggESMAkGA1UdEwQCMAAwHQYDVR0OBBYEFB8y
9LukS0PVNzjTz2Vgm1eo846tMIHMBgNVHSMEgcQwgcGAFNyHdNJ7sg2PyuRDHKQB
QHZuI8hBoYGdpIGaMIGXMQswCQYDVQQGEwJVUzEQMA4GA1UECBMHRmxvcmlkYTEb
MBkGA1UEBxMSUGFsbSBCZWFjaCBHYXJkZW5zMRQwEgYDVQQKEwtaZXJvQywgSW5j
LjEMMAoGA1UECxMDSWNlMRYwFAYDVQQDEw1aZXJvQyBUZXN0IENBMR0wGwYJKoZI
hvcNAQkBFg5pbmZvQHplcm9jLmNvbYIJANyOlqATiBqWMBcGA1UdEQQQMA6CBnNl
cnZlcocEfwAAATANBgkqhkiG9w0BAQsFAAOBgQDIB84N1GG8gp1ruebEZ/qHqeVe
K5U20ChSichmT/kNDlnryI+wtqDfjDUe1fRZoCAwr3vPp4H7U7FEIRz0TAGkNoGH
DrHfeIWF4c/iG6ZFCVE8hG2bkGhj9ujbvs1zXFmMIhrT0/KAJJNOYkL8YxM5iP9A
d9rVF5Upk/Irsuf35Q==
-----END CERTIFICATE-----
