Certificate:
    Data:
        Version: 3 (0x2)
        Serial Number: 1 (0x1)
        Signature Algorithm: sha256WithRSAEncryption
        Issuer: C=US, ST=Florida, L=Palm Beach Gardens, O=ZeroC, Inc., OU=Ice, CN=ZeroC Test CA/emailAddress=info@zeroc.com
        Validity
            Not Before: Oct 19 17:34:42 2011 GMT
            Not After : Oct 17 17:34:42 2016 GMT
        Subject: C=US, ST=Florida, O=ZeroC, Inc., OU=Ice/emailAddress=info@zeroc.com, CN=Client
        Subject Public Key Info:
            Public Key Algorithm: dsaEncryption
                pub: 
                    51:68:c2:e3:a2:9c:35:55:22:50:ae:f7:ac:a3:df:
                    0b:da:cf:fa:67:2d:61:d9:46:41:22:70:ed:b9:b1:
                    a3:68:b4:bb:84:ce:a4:67:11:51:c9:c5:15:cd:fb:
                    e2:66:ff:d3:dd:61:99:92:e1:f6:a0:3f:22:2a:e8:
                    5c:4c:2f:f2:30:2f:10:ea:12:2b:f7:91:9d:c0:cd:
                    12:16:c9:82:b7:ef:3e:f3:db:c8:ed:ec:7e:30:f0:
                    8b:d3:b6:6d:11:8c:19:df:f3:a6:bf:2d:85:89:a2:
                    9e:dc:a1:14:0a:9f:1d:e0:d4:73:dd:d0:88:89:e1:
                    76:27:21:c0:ac:0a:a3:e0
                P:   
                    00:b1:8e:7f:69:a2:5f:66:e3:08:15:6c:93:e8:f2:
                    73:ef:b4:3e:c3:22:7f:10:74:ff:c7:54:f8:b4:f3:
                    5b:0d:03:d5:43:99:ff:dd:95:ab:4f:39:cd:db:db:
                    0c:0f:8e:53:74:c3:e6:0a:6a:e1:26:06:66:50:36:
                    4e:e5:55:47:f5:fb:03:75:ca:5d:8d:2a:5c:35:3f:
                    b3:44:f2:92:93:93:17:64:72:c0:c3:83:e2:a1:f4:
                    f8:c6:ab:48:fc:9b:b9:2e:f9:de:e7:1a:1a:dc:1f:
                    8c:28:1d:be:d4:14:75:d1:1b:36:3d:db:6c:12:2c:
                    9a:d9:d3:c5:34:4f:b9:43:a7
                Q:   
                    00:e6:25:fd:ca:9c:55:a8:01:65:95:21:85:2e:1b:
                    78:1d:39:f4:d7:29
                G:   
                    43:21:74:35:59:cc:f8:fc:dd:de:37:d1:97:ff:99:
                    55:75:fc:34:b5:f4:94:a8:94:05:f6:bd:43:1c:41:
                    a6:b6:91:d4:7f:5e:21:b2:2a:8c:cb:e5:13:e5:71:
                    0a:7f:8f:2a:88:a5:77:33:02:75:01:37:56:fa:b9:
                    b8:c3:c9:d5:36:44:64:82:f8:53:3f:62:96:14:1c:
                    4f:83:69:bb:a0:42:ef:72:f1:a4:7d:f0:34:9a:77:
                    85:bc:2b:4c:ec:c0:7f:8e:1e:23:ae:ca:aa:c9:0e:
                    ba:10:12:ec:44:90:a3:94:82:25:a3:e1:60:98:fb:
                    ef:ba:67:07:2f:de:49:b7
        X509v3 extensions:
            X509v3 Basic Constraints: 
                CA:FALSE
            X509v3 Subject Key Identifier: 
                B9:A9:3C:CD:CD:01:A1:9F:43:B0:10:30:ED:8C:3F:AC:8E:B3:89:4E
            X509v3 Authority Key Identifier: 
                keyid:90:24:7E:B6:07:14:7B:65:D1:6F:07:13:64:B1:ED:5C:FA:28:9B:5F
                DirName:/C=US/ST=Florida/L=Palm Beach Gardens/O=ZeroC, Inc./OU=Ice/CN=ZeroC Test CA/emailAddress=info@zeroc.com
                serial:80:82:1F:1B:F7:72:79:89

            X509v3 Subject Alternative Name: 
                DNS:client, IP Address:127.0.0.1
    Signature Algorithm: sha256WithRSAEncryption
        24:c5:fe:b3:98:c1:1e:8a:dc:93:70:0b:d8:f8:60:fd:ab:c9:
        a3:5d:ad:a5:32:cd:01:86:56:f4:26:be:9f:56:54:e6:cb:89:
        b5:86:66:30:f2:2e:05:64:fb:0d:86:f2:e7:3a:34:d3:d2:8a:
        83:95:7a:4d:6d:e1:c7:98:af:18:4e:ea:9f:4a:c4:ce:0b:9c:
        f4:2c:1e:d2:33:fb:82:c8:7f:c2:a8:9a:e1:ec:a7:17:da:4a:
        9f:98:2f:eb:50:e0:22:f6:dd:fa:fd:33:76:08:3d:07:5f:eb:
        1f:86:34:26:64:d8:79:1b:0c:38:5e:33:31:fc:b1:1b:cf:e2:
        65:cd
-----BEGIN CERTIFICATE-----
MIIEsTCCBBqgAwIBAgIBATANBgkqhkiG9w0BAQsFADCBlzELMAkGA1UEBhMCVVMx
EDAOBgNVBAgTB0Zsb3JpZGExGzAZBgNVBAcTElBhbG0gQmVhY2ggR2FyZGVuczEU
MBIGA1UEChMLWmVyb0MsIEluYy4xDDAKBgNVBAsTA0ljZTEWMBQGA1UEAxMNWmVy
b0MgVGVzdCBDQTEdMBsGCSqGSIb3DQEJARYOaW5mb0B6ZXJvYy5jb20wHhcNMTEx
MDE5MTczNDQyWhcNMTYxMDE3MTczNDQyWjBzMQswCQYDVQQGEwJVUzEQMA4GA1UE
CBMHRmxvcmlkYTEUMBIGA1UEChMLWmVyb0MsIEluYy4xDDAKBgNVBAsTA0ljZTEd
MBsGCSqGSIb3DQEJARYOaW5mb0B6ZXJvYy5jb20xDzANBgNVBAMTBkNsaWVudDCC
AbYwggErBgcqhkjOOAQBMIIBHgKBgQCxjn9pol9m4wgVbJPo8nPvtD7DIn8QdP/H
VPi081sNA9VDmf/dlatPOc3b2wwPjlN0w+YKauEmBmZQNk7lVUf1+wN1yl2NKlw1
P7NE8pKTkxdkcsDDg+Kh9PjGq0j8m7ku+d7nGhrcH4woHb7UFHXRGzY922wSLJrZ
08U0T7lDpwIVAOYl/cqcVagBZZUhhS4beB059NcpAoGAQyF0NVnM+Pzd3jfRl/+Z
VXX8NLX0lKiUBfa9QxxBpraR1H9eIbIqjMvlE+VxCn+PKoildzMCdQE3Vvq5uMPJ
1TZEZIL4Uz9ilhQcT4Npu6BC73LxpH3wNJp3hbwrTOzAf44eI67KqskOuhAS7ESQ
o5SCJaPhYJj777pnBy/eSbcDgYQAAoGAUWjC46KcNVUiUK73rKPfC9rP+mctYdlG
QSJw7bmxo2i0u4TOpGcRUcnFFc374mb/091hmZLh9qA/IiroXEwv8jAvEOoSK/eR
ncDNEhbJgrfvPvPbyO3sfjDwi9O2bRGMGd/zpr8thYmintyhFAqfHeDUc93QiInh
dichwKwKo+CjggEWMIIBEjAJBgNVHRMEAjAAMB0GA1UdDgQWBBS5qTzNzQGhn0Ow
EDDtjD+sjrOJTjCBzAYDVR0jBIHEMIHBgBSQJH62BxR7ZdFvBxNkse1c+iibX6GB
naSBmjCBlzELMAkGA1UEBhMCVVMxEDAOBgNVBAgTB0Zsb3JpZGExGzAZBgNVBAcT
ElBhbG0gQmVhY2ggR2FyZGVuczEUMBIGA1UEChMLWmVyb0MsIEluYy4xDDAKBgNV
BAsTA0ljZTEWMBQGA1UEAxMNWmVyb0MgVGVzdCBDQTEdMBsGCSqGSIb3DQEJARYO
aW5mb0B6ZXJvYy5jb22CCQCAgh8b93J5iTAXBgNVHREEEDAOggZjbGllbnSHBH8A
AAEwDQYJKoZIhvcNAQELBQADgYEAJMX+s5jBHorck3AL2Phg/avJo12tpTLNAYZW
9Ca+n1ZU5suJtYZmMPIuBWT7DYby5zo009KKg5V6TW3hx5ivGE7qn0rEzguc9Cwe
0jP7gsh/wqia4eynF9pKn5gv61DgIvbd+v0zdgg9B1/rH4Y0JmTYeRsMOF4zMfyx
G8/iZc0=
-----END CERTIFICATE-----
